
main.elf:     file format elf32-littlearm


Disassembly of section .text:

30000000 <_start>:
30000000:	ea00000d 	b	3000003c <reset>
30000004:	e59ff014 	ldr	pc, [pc, #20]	; 30000020 <_undefined_instruction>
30000008:	e59ff014 	ldr	pc, [pc, #20]	; 30000024 <_soft_interrupt>
3000000c:	e59ff014 	ldr	pc, [pc, #20]	; 30000028 <_prefetch_abort>
30000010:	e59ff014 	ldr	pc, [pc, #20]	; 3000002c <_data_abort>
30000014:	e59ff014 	ldr	pc, [pc, #20]	; 30000030 <_not_used>
30000018:	e59ff014 	ldr	pc, [pc, #20]	; 30000034 <_irq>
3000001c:	e59ff014 	ldr	pc, [pc, #20]	; 30000038 <_fiq>

30000020 <_undefined_instruction>:
30000020:	300000e0 	.word	0x300000e0

30000024 <_soft_interrupt>:
30000024:	300000e4 	.word	0x300000e4

30000028 <_prefetch_abort>:
30000028:	300000e8 	.word	0x300000e8

3000002c <_data_abort>:
3000002c:	300000ec 	.word	0x300000ec

30000030 <_not_used>:
30000030:	300000f0 	.word	0x300000f0

30000034 <_irq>:
30000034:	300000f4 	.word	0x300000f4

30000038 <_fiq>:
30000038:	300000f8 	.word	0x300000f8

3000003c <reset>:
3000003c:	e10f0000 	mrs	r0, CPSR
30000040:	e3c0001f 	bic	r0, r0, #31
30000044:	e38000d3 	orr	r0, r0, #211	; 0xd3
30000048:	e129f000 	msr	CPSR_fc, r0
3000004c:	e3e0d10f 	mvn	sp, #-1073741821	; 0xc0000003
30000050:	e10f0000 	mrs	r0, CPSR
30000054:	e3c0001f 	bic	r0, r0, #31
30000058:	e38000d2 	orr	r0, r0, #210	; 0xd2
3000005c:	e129f000 	msr	CPSR_fc, r0
30000060:	e59fd094 	ldr	sp, [pc, #148]	; 300000fc <fiq+0x4>
30000064:	e10f0000 	mrs	r0, CPSR
30000068:	e3c0001f 	bic	r0, r0, #31
3000006c:	e38000d1 	orr	r0, r0, #209	; 0xd1
30000070:	e129f000 	msr	CPSR_fc, r0
30000074:	e59fd084 	ldr	sp, [pc, #132]	; 30000100 <fiq+0x8>
30000078:	e10f0000 	mrs	r0, CPSR
3000007c:	e3c0001f 	bic	r0, r0, #31
30000080:	e38000d7 	orr	r0, r0, #215	; 0xd7
30000084:	e129f000 	msr	CPSR_fc, r0
30000088:	e59fd074 	ldr	sp, [pc, #116]	; 30000104 <fiq+0xc>
3000008c:	e10f0000 	mrs	r0, CPSR
30000090:	e3c0001f 	bic	r0, r0, #31
30000094:	e38000db 	orr	r0, r0, #219	; 0xdb
30000098:	e129f000 	msr	CPSR_fc, r0
3000009c:	e3e0d3f1 	mvn	sp, #-1006632957	; 0xc4000003
300000a0:	e10f0000 	mrs	r0, CPSR
300000a4:	e3c0001f 	bic	r0, r0, #31
300000a8:	e38000df 	orr	r0, r0, #223	; 0xdf
300000ac:	e129f000 	msr	CPSR_fc, r0
300000b0:	e59fd050 	ldr	sp, [pc, #80]	; 30000108 <fiq+0x10>

300000b4 <_clear_bss>:
300000b4:	e59f001c 	ldr	r0, [pc, #28]	; 300000d8 <_bss_start>
300000b8:	e59f101c 	ldr	r1, [pc, #28]	; 300000dc <_bss_end>
300000bc:	e3a02000 	mov	r2, #0
300000c0:	e1500001 	cmp	r0, r1
300000c4:	0a000001 	beq	300000d0 <__main>
300000c8:	e4802004 	str	r2, [r0], #4
300000cc:	eafffffb 	b	300000c0 <_clear_bss+0xc>

300000d0 <__main>:
300000d0:	eb00000d 	bl	3000010c <start_kernel>

300000d4 <halt>:
300000d4:	eafffffe 	b	300000d4 <halt>

300000d8 <_bss_start>:
300000d8:	30001a20 	.word	0x30001a20

300000dc <_bss_end>:
300000dc:	30001a2c 	.word	0x30001a2c

300000e0 <undefine_instruction>:
300000e0:	e1a00000 	nop			; (mov r0, r0)

300000e4 <soft_interrupt>:
300000e4:	e1a00000 	nop			; (mov r0, r0)

300000e8 <prefetch_abort>:
300000e8:	e1a00000 	nop			; (mov r0, r0)

300000ec <data_abort>:
300000ec:	e1a00000 	nop			; (mov r0, r0)

300000f0 <not_used>:
300000f0:	e1a00000 	nop			; (mov r0, r0)

300000f4 <irq>:
300000f4:	e1a00000 	nop			; (mov r0, r0)

300000f8 <fiq>:
300000f8:	e1a00000 	nop			; (mov r0, r0)
300000fc:	3efffffc 	.word	0x3efffffc
30000100:	3dfffffc 	.word	0x3dfffffc
30000104:	3cfffffc 	.word	0x3cfffffc
30000108:	3afffffc 	.word	0x3afffffc

3000010c <start_kernel>:
3000010c:	e92d4800 	push	{fp, lr}
30000110:	e28db004 	add	fp, sp, #4
30000114:	eb000553 	bl	30001668 <init_mmu>
30000118:	e59f0004 	ldr	r0, [pc, #4]	; 30000124 <start_kernel+0x18>
3000011c:	eb0003b6 	bl	30000ffc <printf>
30000120:	e8bd8800 	pop	{fp, pc}
30000124:	30001940 	.word	0x30001940

30000128 <putc>:
30000128:	e52db004 	push	{fp}		; (str fp, [sp, #-4]!)
3000012c:	e28db000 	add	fp, sp, #0
30000130:	e24dd008 	sub	sp, sp, #8
30000134:	e1a03000 	mov	r3, r0
30000138:	e54b3008 	strb	r3, [fp, #-8]
3000013c:	e55b3008 	ldrb	r3, [fp, #-8]
30000140:	e54b3001 	strb	r3, [fp, #-1]
30000144:	e3a0320e 	mov	r3, #-536870912	; 0xe0000000
30000148:	e2833020 	add	r3, r3, #32
3000014c:	e55b2001 	ldrb	r2, [fp, #-1]
30000150:	e5c32000 	strb	r2, [r3]
30000154:	e5d33000 	ldrb	r3, [r3]
30000158:	e28bd000 	add	sp, fp, #0
3000015c:	e8bd0800 	pop	{fp}
30000160:	e12fff1e 	bx	lr

30000164 <puts>:
30000164:	e92d4800 	push	{fp, lr}
30000168:	e28db004 	add	fp, sp, #4
3000016c:	e24dd004 	sub	sp, sp, #4
30000170:	e50b0008 	str	r0, [fp, #-8]
30000174:	ea000006 	b	30000194 <puts+0x30>
30000178:	e51b3008 	ldr	r3, [fp, #-8]
3000017c:	e5d33000 	ldrb	r3, [r3]
30000180:	e51b2008 	ldr	r2, [fp, #-8]
30000184:	e2822001 	add	r2, r2, #1
30000188:	e50b2008 	str	r2, [fp, #-8]
3000018c:	e1a00003 	mov	r0, r3
30000190:	ebffffe4 	bl	30000128 <putc>
30000194:	e51b3008 	ldr	r3, [fp, #-8]
30000198:	e5d33000 	ldrb	r3, [r3]
3000019c:	e3530000 	cmp	r3, #0
300001a0:	1afffff4 	bne	30000178 <puts+0x14>
300001a4:	e24bd004 	sub	sp, fp, #4
300001a8:	e8bd8800 	pop	{fp, pc}

300001ac <putc_raw>:
300001ac:	e52db004 	push	{fp}		; (str fp, [sp, #-4]!)
300001b0:	e28db000 	add	fp, sp, #0
300001b4:	e24dd008 	sub	sp, sp, #8
300001b8:	e1a03000 	mov	r3, r0
300001bc:	e54b3008 	strb	r3, [fp, #-8]
300001c0:	e55b3008 	ldrb	r3, [fp, #-8]
300001c4:	e54b3001 	strb	r3, [fp, #-1]
300001c8:	e3a03205 	mov	r3, #1342177280	; 0x50000000
300001cc:	e2833020 	add	r3, r3, #32
300001d0:	e55b2001 	ldrb	r2, [fp, #-1]
300001d4:	e5c32000 	strb	r2, [r3]
300001d8:	e5d33000 	ldrb	r3, [r3]
300001dc:	e28bd000 	add	sp, fp, #0
300001e0:	e8bd0800 	pop	{fp}
300001e4:	e12fff1e 	bx	lr

300001e8 <puts_raw>:
300001e8:	e92d4800 	push	{fp, lr}
300001ec:	e28db004 	add	fp, sp, #4
300001f0:	e24dd004 	sub	sp, sp, #4
300001f4:	e50b0008 	str	r0, [fp, #-8]
300001f8:	ea000006 	b	30000218 <puts_raw+0x30>
300001fc:	e51b3008 	ldr	r3, [fp, #-8]
30000200:	e5d33000 	ldrb	r3, [r3]
30000204:	e51b2008 	ldr	r2, [fp, #-8]
30000208:	e2822001 	add	r2, r2, #1
3000020c:	e50b2008 	str	r2, [fp, #-8]
30000210:	e1a00003 	mov	r0, r3
30000214:	ebffffe4 	bl	300001ac <putc_raw>
30000218:	e51b3008 	ldr	r3, [fp, #-8]
3000021c:	e5d33000 	ldrb	r3, [r3]
30000220:	e3530000 	cmp	r3, #0
30000224:	1afffff4 	bne	300001fc <puts_raw+0x14>
30000228:	e24bd004 	sub	sp, fp, #4
3000022c:	e8bd8800 	pop	{fp, pc}

30000230 <raise>:
30000230:	e52db004 	push	{fp}		; (str fp, [sp, #-4]!)
30000234:	e28db000 	add	fp, sp, #0
30000238:	e3a03000 	mov	r3, #0
3000023c:	e1a00003 	mov	r0, r3
30000240:	e28bd000 	add	sp, fp, #0
30000244:	e8bd0800 	pop	{fp}
30000248:	e12fff1e 	bx	lr

3000024c <skip_atoi>:
3000024c:	e52db004 	push	{fp}		; (str fp, [sp, #-4]!)
30000250:	e28db000 	add	fp, sp, #0
30000254:	e24dd008 	sub	sp, sp, #8
30000258:	e50b0008 	str	r0, [fp, #-8]
3000025c:	e3a03000 	mov	r3, #0
30000260:	e50b3004 	str	r3, [fp, #-4]
30000264:	ea00000e 	b	300002a4 <skip_atoi+0x58>
30000268:	e51b2004 	ldr	r2, [fp, #-4]
3000026c:	e1a03002 	mov	r3, r2
30000270:	e1a03103 	lsl	r3, r3, #2
30000274:	e0833002 	add	r3, r3, r2
30000278:	e1a03083 	lsl	r3, r3, #1
3000027c:	e1a01003 	mov	r1, r3
30000280:	e51b3008 	ldr	r3, [fp, #-8]
30000284:	e5933000 	ldr	r3, [r3]
30000288:	e5d32000 	ldrb	r2, [r3]
3000028c:	e0812002 	add	r2, r1, r2
30000290:	e2422030 	sub	r2, r2, #48	; 0x30
30000294:	e50b2004 	str	r2, [fp, #-4]
30000298:	e2832001 	add	r2, r3, #1
3000029c:	e51b3008 	ldr	r3, [fp, #-8]
300002a0:	e5832000 	str	r2, [r3]
300002a4:	e51b3008 	ldr	r3, [fp, #-8]
300002a8:	e5933000 	ldr	r3, [r3]
300002ac:	e5d33000 	ldrb	r3, [r3]
300002b0:	e353002f 	cmp	r3, #47	; 0x2f
300002b4:	9a000004 	bls	300002cc <skip_atoi+0x80>
300002b8:	e51b3008 	ldr	r3, [fp, #-8]
300002bc:	e5933000 	ldr	r3, [r3]
300002c0:	e5d33000 	ldrb	r3, [r3]
300002c4:	e3530039 	cmp	r3, #57	; 0x39
300002c8:	9affffe6 	bls	30000268 <skip_atoi+0x1c>
300002cc:	e51b3004 	ldr	r3, [fp, #-4]
300002d0:	e1a00003 	mov	r0, r3
300002d4:	e28bd000 	add	sp, fp, #0
300002d8:	e8bd0800 	pop	{fp}
300002dc:	e12fff1e 	bx	lr

300002e0 <number>:
300002e0:	e92d4810 	push	{r4, fp, lr}
300002e4:	e28db008 	add	fp, sp, #8
300002e8:	e24dd060 	sub	sp, sp, #96	; 0x60
300002ec:	e50b005c 	str	r0, [fp, #-92]	; 0x5c
300002f0:	e50b1060 	str	r1, [fp, #-96]	; 0x60
300002f4:	e50b2064 	str	r2, [fp, #-100]	; 0x64
300002f8:	e50b3068 	str	r3, [fp, #-104]	; 0x68
300002fc:	e59f3474 	ldr	r3, [pc, #1140]	; 30000778 <number+0x498>
30000300:	e50b3014 	str	r3, [fp, #-20]
30000304:	e59b3008 	ldr	r3, [fp, #8]
30000308:	e2033040 	and	r3, r3, #64	; 0x40
3000030c:	e3530000 	cmp	r3, #0
30000310:	0a000001 	beq	3000031c <number+0x3c>
30000314:	e59f3460 	ldr	r3, [pc, #1120]	; 3000077c <number+0x49c>
30000318:	e50b3014 	str	r3, [fp, #-20]
3000031c:	e59b3008 	ldr	r3, [fp, #8]
30000320:	e2033010 	and	r3, r3, #16
30000324:	e3530000 	cmp	r3, #0
30000328:	0a000002 	beq	30000338 <number+0x58>
3000032c:	e59b3008 	ldr	r3, [fp, #8]
30000330:	e3c33001 	bic	r3, r3, #1
30000334:	e58b3008 	str	r3, [fp, #8]
30000338:	e51b3064 	ldr	r3, [fp, #-100]	; 0x64
3000033c:	e3530001 	cmp	r3, #1
30000340:	da000002 	ble	30000350 <number+0x70>
30000344:	e51b3064 	ldr	r3, [fp, #-100]	; 0x64
30000348:	e3530024 	cmp	r3, #36	; 0x24
3000034c:	da000001 	ble	30000358 <number+0x78>
30000350:	e3a03000 	mov	r3, #0
30000354:	ea000104 	b	3000076c <number+0x48c>
30000358:	e59b3008 	ldr	r3, [fp, #8]
3000035c:	e2033001 	and	r3, r3, #1
30000360:	e20330ff 	and	r3, r3, #255	; 0xff
30000364:	e3530000 	cmp	r3, #0
30000368:	0a000001 	beq	30000374 <number+0x94>
3000036c:	e3a03030 	mov	r3, #48	; 0x30
30000370:	ea000000 	b	30000378 <number+0x98>
30000374:	e3a03020 	mov	r3, #32
30000378:	e54b3016 	strb	r3, [fp, #-22]
3000037c:	e3a03000 	mov	r3, #0
30000380:	e54b3015 	strb	r3, [fp, #-21]
30000384:	e59b3008 	ldr	r3, [fp, #8]
30000388:	e2033002 	and	r3, r3, #2
3000038c:	e3530000 	cmp	r3, #0
30000390:	0a00001e 	beq	30000410 <number+0x130>
30000394:	e51b3060 	ldr	r3, [fp, #-96]	; 0x60
30000398:	e3530000 	cmp	r3, #0
3000039c:	aa000008 	bge	300003c4 <number+0xe4>
300003a0:	e3a0302d 	mov	r3, #45	; 0x2d
300003a4:	e54b3015 	strb	r3, [fp, #-21]
300003a8:	e51b3060 	ldr	r3, [fp, #-96]	; 0x60
300003ac:	e2633000 	rsb	r3, r3, #0
300003b0:	e50b3060 	str	r3, [fp, #-96]	; 0x60
300003b4:	e51b3068 	ldr	r3, [fp, #-104]	; 0x68
300003b8:	e2433001 	sub	r3, r3, #1
300003bc:	e50b3068 	str	r3, [fp, #-104]	; 0x68
300003c0:	ea000012 	b	30000410 <number+0x130>
300003c4:	e59b3008 	ldr	r3, [fp, #8]
300003c8:	e2033004 	and	r3, r3, #4
300003cc:	e3530000 	cmp	r3, #0
300003d0:	0a000005 	beq	300003ec <number+0x10c>
300003d4:	e3a0302b 	mov	r3, #43	; 0x2b
300003d8:	e54b3015 	strb	r3, [fp, #-21]
300003dc:	e51b3068 	ldr	r3, [fp, #-104]	; 0x68
300003e0:	e2433001 	sub	r3, r3, #1
300003e4:	e50b3068 	str	r3, [fp, #-104]	; 0x68
300003e8:	ea000008 	b	30000410 <number+0x130>
300003ec:	e59b3008 	ldr	r3, [fp, #8]
300003f0:	e2033008 	and	r3, r3, #8
300003f4:	e3530000 	cmp	r3, #0
300003f8:	0a000004 	beq	30000410 <number+0x130>
300003fc:	e3a03020 	mov	r3, #32
30000400:	e54b3015 	strb	r3, [fp, #-21]
30000404:	e51b3068 	ldr	r3, [fp, #-104]	; 0x68
30000408:	e2433001 	sub	r3, r3, #1
3000040c:	e50b3068 	str	r3, [fp, #-104]	; 0x68
30000410:	e59b3008 	ldr	r3, [fp, #8]
30000414:	e2033020 	and	r3, r3, #32
30000418:	e3530000 	cmp	r3, #0
3000041c:	0a00000c 	beq	30000454 <number+0x174>
30000420:	e51b3064 	ldr	r3, [fp, #-100]	; 0x64
30000424:	e3530010 	cmp	r3, #16
30000428:	1a000003 	bne	3000043c <number+0x15c>
3000042c:	e51b3068 	ldr	r3, [fp, #-104]	; 0x68
30000430:	e2433002 	sub	r3, r3, #2
30000434:	e50b3068 	str	r3, [fp, #-104]	; 0x68
30000438:	ea000005 	b	30000454 <number+0x174>
3000043c:	e51b3064 	ldr	r3, [fp, #-100]	; 0x64
30000440:	e3530008 	cmp	r3, #8
30000444:	1a000002 	bne	30000454 <number+0x174>
30000448:	e51b3068 	ldr	r3, [fp, #-104]	; 0x68
3000044c:	e2433001 	sub	r3, r3, #1
30000450:	e50b3068 	str	r3, [fp, #-104]	; 0x68
30000454:	e3a03000 	mov	r3, #0
30000458:	e50b3010 	str	r3, [fp, #-16]
3000045c:	e51b3060 	ldr	r3, [fp, #-96]	; 0x60
30000460:	e3530000 	cmp	r3, #0
30000464:	1a000025 	bne	30000500 <number+0x220>
30000468:	e51b2010 	ldr	r2, [fp, #-16]
3000046c:	e3e0304f 	mvn	r3, #79	; 0x4f
30000470:	e24b0008 	sub	r0, fp, #8
30000474:	e0802002 	add	r2, r0, r2
30000478:	e0823003 	add	r3, r2, r3
3000047c:	e3a02030 	mov	r2, #48	; 0x30
30000480:	e5c32000 	strb	r2, [r3]
30000484:	e51b3010 	ldr	r3, [fp, #-16]
30000488:	e2833001 	add	r3, r3, #1
3000048c:	e50b3010 	str	r3, [fp, #-16]
30000490:	ea00001d 	b	3000050c <number+0x22c>
30000494:	e51b4010 	ldr	r4, [fp, #-16]
30000498:	e51b2060 	ldr	r2, [fp, #-96]	; 0x60
3000049c:	e51b3064 	ldr	r3, [fp, #-100]	; 0x64
300004a0:	e1a00002 	mov	r0, r2
300004a4:	e1a01003 	mov	r1, r3
300004a8:	eb0004f0 	bl	30001870 <__umodsi3>
300004ac:	e1a03000 	mov	r3, r0
300004b0:	e50b300c 	str	r3, [fp, #-12]
300004b4:	e51b2060 	ldr	r2, [fp, #-96]	; 0x60
300004b8:	e51b3064 	ldr	r3, [fp, #-100]	; 0x64
300004bc:	e1a00002 	mov	r0, r2
300004c0:	e1a01003 	mov	r1, r3
300004c4:	eb0004a5 	bl	30001760 <__aeabi_uidiv>
300004c8:	e1a03000 	mov	r3, r0
300004cc:	e50b3060 	str	r3, [fp, #-96]	; 0x60
300004d0:	e51b300c 	ldr	r3, [fp, #-12]
300004d4:	e51b2014 	ldr	r2, [fp, #-20]
300004d8:	e0823003 	add	r3, r2, r3
300004dc:	e5d32000 	ldrb	r2, [r3]
300004e0:	e3e0304f 	mvn	r3, #79	; 0x4f
300004e4:	e24b0008 	sub	r0, fp, #8
300004e8:	e0801004 	add	r1, r0, r4
300004ec:	e0813003 	add	r3, r1, r3
300004f0:	e5c32000 	strb	r2, [r3]
300004f4:	e51b3010 	ldr	r3, [fp, #-16]
300004f8:	e2833001 	add	r3, r3, #1
300004fc:	e50b3010 	str	r3, [fp, #-16]
30000500:	e51b3060 	ldr	r3, [fp, #-96]	; 0x60
30000504:	e3530000 	cmp	r3, #0
30000508:	1affffe1 	bne	30000494 <number+0x1b4>
3000050c:	e51b2010 	ldr	r2, [fp, #-16]
30000510:	e59b3004 	ldr	r3, [fp, #4]
30000514:	e1520003 	cmp	r2, r3
30000518:	da000001 	ble	30000524 <number+0x244>
3000051c:	e51b3010 	ldr	r3, [fp, #-16]
30000520:	e58b3004 	str	r3, [fp, #4]
30000524:	e51b2068 	ldr	r2, [fp, #-104]	; 0x68
30000528:	e59b3004 	ldr	r3, [fp, #4]
3000052c:	e0633002 	rsb	r3, r3, r2
30000530:	e50b3068 	str	r3, [fp, #-104]	; 0x68
30000534:	e59b3008 	ldr	r3, [fp, #8]
30000538:	e2033011 	and	r3, r3, #17
3000053c:	e3530000 	cmp	r3, #0
30000540:	1a000010 	bne	30000588 <number+0x2a8>
30000544:	ea000005 	b	30000560 <number+0x280>
30000548:	e51b305c 	ldr	r3, [fp, #-92]	; 0x5c
3000054c:	e3a02020 	mov	r2, #32
30000550:	e5c32000 	strb	r2, [r3]
30000554:	e51b305c 	ldr	r3, [fp, #-92]	; 0x5c
30000558:	e2833001 	add	r3, r3, #1
3000055c:	e50b305c 	str	r3, [fp, #-92]	; 0x5c
30000560:	e51b3068 	ldr	r3, [fp, #-104]	; 0x68
30000564:	e3530000 	cmp	r3, #0
30000568:	d3a03000 	movle	r3, #0
3000056c:	c3a03001 	movgt	r3, #1
30000570:	e20330ff 	and	r3, r3, #255	; 0xff
30000574:	e51b2068 	ldr	r2, [fp, #-104]	; 0x68
30000578:	e2422001 	sub	r2, r2, #1
3000057c:	e50b2068 	str	r2, [fp, #-104]	; 0x68
30000580:	e3530000 	cmp	r3, #0
30000584:	1affffef 	bne	30000548 <number+0x268>
30000588:	e55b3015 	ldrb	r3, [fp, #-21]
3000058c:	e3530000 	cmp	r3, #0
30000590:	0a000005 	beq	300005ac <number+0x2cc>
30000594:	e51b305c 	ldr	r3, [fp, #-92]	; 0x5c
30000598:	e55b2015 	ldrb	r2, [fp, #-21]
3000059c:	e5c32000 	strb	r2, [r3]
300005a0:	e51b305c 	ldr	r3, [fp, #-92]	; 0x5c
300005a4:	e2833001 	add	r3, r3, #1
300005a8:	e50b305c 	str	r3, [fp, #-92]	; 0x5c
300005ac:	e59b3008 	ldr	r3, [fp, #8]
300005b0:	e2033020 	and	r3, r3, #32
300005b4:	e3530000 	cmp	r3, #0
300005b8:	0a00001a 	beq	30000628 <number+0x348>
300005bc:	e51b3064 	ldr	r3, [fp, #-100]	; 0x64
300005c0:	e3530008 	cmp	r3, #8
300005c4:	1a000006 	bne	300005e4 <number+0x304>
300005c8:	e51b305c 	ldr	r3, [fp, #-92]	; 0x5c
300005cc:	e3a02030 	mov	r2, #48	; 0x30
300005d0:	e5c32000 	strb	r2, [r3]
300005d4:	e51b305c 	ldr	r3, [fp, #-92]	; 0x5c
300005d8:	e2833001 	add	r3, r3, #1
300005dc:	e50b305c 	str	r3, [fp, #-92]	; 0x5c
300005e0:	ea000010 	b	30000628 <number+0x348>
300005e4:	e51b3064 	ldr	r3, [fp, #-100]	; 0x64
300005e8:	e3530010 	cmp	r3, #16
300005ec:	1a00000d 	bne	30000628 <number+0x348>
300005f0:	e51b305c 	ldr	r3, [fp, #-92]	; 0x5c
300005f4:	e3a02030 	mov	r2, #48	; 0x30
300005f8:	e5c32000 	strb	r2, [r3]
300005fc:	e51b305c 	ldr	r3, [fp, #-92]	; 0x5c
30000600:	e2833001 	add	r3, r3, #1
30000604:	e50b305c 	str	r3, [fp, #-92]	; 0x5c
30000608:	e51b3014 	ldr	r3, [fp, #-20]
3000060c:	e2833021 	add	r3, r3, #33	; 0x21
30000610:	e5d32000 	ldrb	r2, [r3]
30000614:	e51b305c 	ldr	r3, [fp, #-92]	; 0x5c
30000618:	e5c32000 	strb	r2, [r3]
3000061c:	e51b305c 	ldr	r3, [fp, #-92]	; 0x5c
30000620:	e2833001 	add	r3, r3, #1
30000624:	e50b305c 	str	r3, [fp, #-92]	; 0x5c
30000628:	e59b3008 	ldr	r3, [fp, #8]
3000062c:	e2033010 	and	r3, r3, #16
30000630:	e3530000 	cmp	r3, #0
30000634:	1a000018 	bne	3000069c <number+0x3bc>
30000638:	ea000005 	b	30000654 <number+0x374>
3000063c:	e51b305c 	ldr	r3, [fp, #-92]	; 0x5c
30000640:	e55b2016 	ldrb	r2, [fp, #-22]
30000644:	e5c32000 	strb	r2, [r3]
30000648:	e51b305c 	ldr	r3, [fp, #-92]	; 0x5c
3000064c:	e2833001 	add	r3, r3, #1
30000650:	e50b305c 	str	r3, [fp, #-92]	; 0x5c
30000654:	e51b3068 	ldr	r3, [fp, #-104]	; 0x68
30000658:	e3530000 	cmp	r3, #0
3000065c:	d3a03000 	movle	r3, #0
30000660:	c3a03001 	movgt	r3, #1
30000664:	e20330ff 	and	r3, r3, #255	; 0xff
30000668:	e51b2068 	ldr	r2, [fp, #-104]	; 0x68
3000066c:	e2422001 	sub	r2, r2, #1
30000670:	e50b2068 	str	r2, [fp, #-104]	; 0x68
30000674:	e3530000 	cmp	r3, #0
30000678:	1affffef 	bne	3000063c <number+0x35c>
3000067c:	ea000007 	b	300006a0 <number+0x3c0>
30000680:	e51b305c 	ldr	r3, [fp, #-92]	; 0x5c
30000684:	e3a02030 	mov	r2, #48	; 0x30
30000688:	e5c32000 	strb	r2, [r3]
3000068c:	e51b305c 	ldr	r3, [fp, #-92]	; 0x5c
30000690:	e2833001 	add	r3, r3, #1
30000694:	e50b305c 	str	r3, [fp, #-92]	; 0x5c
30000698:	ea000000 	b	300006a0 <number+0x3c0>
3000069c:	e1a00000 	nop			; (mov r0, r0)
300006a0:	e59b2004 	ldr	r2, [fp, #4]
300006a4:	e51b3010 	ldr	r3, [fp, #-16]
300006a8:	e1520003 	cmp	r2, r3
300006ac:	d3a03000 	movle	r3, #0
300006b0:	c3a03001 	movgt	r3, #1
300006b4:	e20330ff 	and	r3, r3, #255	; 0xff
300006b8:	e59b2004 	ldr	r2, [fp, #4]
300006bc:	e2422001 	sub	r2, r2, #1
300006c0:	e58b2004 	str	r2, [fp, #4]
300006c4:	e3530000 	cmp	r3, #0
300006c8:	1affffec 	bne	30000680 <number+0x3a0>
300006cc:	ea00000a 	b	300006fc <number+0x41c>
300006d0:	e51b2010 	ldr	r2, [fp, #-16]
300006d4:	e3e0304f 	mvn	r3, #79	; 0x4f
300006d8:	e24b1008 	sub	r1, fp, #8
300006dc:	e0812002 	add	r2, r1, r2
300006e0:	e0823003 	add	r3, r2, r3
300006e4:	e5d32000 	ldrb	r2, [r3]
300006e8:	e51b305c 	ldr	r3, [fp, #-92]	; 0x5c
300006ec:	e5c32000 	strb	r2, [r3]
300006f0:	e51b305c 	ldr	r3, [fp, #-92]	; 0x5c
300006f4:	e2833001 	add	r3, r3, #1
300006f8:	e50b305c 	str	r3, [fp, #-92]	; 0x5c
300006fc:	e51b3010 	ldr	r3, [fp, #-16]
30000700:	e3530000 	cmp	r3, #0
30000704:	d3a03000 	movle	r3, #0
30000708:	c3a03001 	movgt	r3, #1
3000070c:	e20330ff 	and	r3, r3, #255	; 0xff
30000710:	e51b2010 	ldr	r2, [fp, #-16]
30000714:	e2422001 	sub	r2, r2, #1
30000718:	e50b2010 	str	r2, [fp, #-16]
3000071c:	e3530000 	cmp	r3, #0
30000720:	1affffea 	bne	300006d0 <number+0x3f0>
30000724:	ea000005 	b	30000740 <number+0x460>
30000728:	e51b305c 	ldr	r3, [fp, #-92]	; 0x5c
3000072c:	e3a02020 	mov	r2, #32
30000730:	e5c32000 	strb	r2, [r3]
30000734:	e51b305c 	ldr	r3, [fp, #-92]	; 0x5c
30000738:	e2833001 	add	r3, r3, #1
3000073c:	e50b305c 	str	r3, [fp, #-92]	; 0x5c
30000740:	e51b3068 	ldr	r3, [fp, #-104]	; 0x68
30000744:	e3530000 	cmp	r3, #0
30000748:	d3a03000 	movle	r3, #0
3000074c:	c3a03001 	movgt	r3, #1
30000750:	e20330ff 	and	r3, r3, #255	; 0xff
30000754:	e51b2068 	ldr	r2, [fp, #-104]	; 0x68
30000758:	e2422001 	sub	r2, r2, #1
3000075c:	e50b2068 	str	r2, [fp, #-104]	; 0x68
30000760:	e3530000 	cmp	r3, #0
30000764:	1affffef 	bne	30000728 <number+0x448>
30000768:	e51b305c 	ldr	r3, [fp, #-92]	; 0x5c
3000076c:	e1a00003 	mov	r0, r3
30000770:	e24bd008 	sub	sp, fp, #8
30000774:	e8bd8810 	pop	{r4, fp, pc}
30000778:	30001950 	.word	0x30001950
3000077c:	30001978 	.word	0x30001978

30000780 <vsprintf>:
30000780:	e92d4800 	push	{fp, lr}
30000784:	e28db004 	add	fp, sp, #4
30000788:	e24dd044 	sub	sp, sp, #68	; 0x44
3000078c:	e50b0038 	str	r0, [fp, #-56]	; 0x38
30000790:	e50b103c 	str	r1, [fp, #-60]	; 0x3c
30000794:	e50b2040 	str	r2, [fp, #-64]	; 0x40
30000798:	e51b3038 	ldr	r3, [fp, #-56]	; 0x38
3000079c:	e50b3024 	str	r3, [fp, #-36]	; 0x24
300007a0:	ea000207 	b	30000fc4 <vsprintf+0x844>
300007a4:	e51b303c 	ldr	r3, [fp, #-60]	; 0x3c
300007a8:	e5d33000 	ldrb	r3, [r3]
300007ac:	e3530025 	cmp	r3, #37	; 0x25
300007b0:	0a000007 	beq	300007d4 <vsprintf+0x54>
300007b4:	e51b303c 	ldr	r3, [fp, #-60]	; 0x3c
300007b8:	e5d32000 	ldrb	r2, [r3]
300007bc:	e51b3024 	ldr	r3, [fp, #-36]	; 0x24
300007c0:	e5c32000 	strb	r2, [r3]
300007c4:	e51b3024 	ldr	r3, [fp, #-36]	; 0x24
300007c8:	e2833001 	add	r3, r3, #1
300007cc:	e50b3024 	str	r3, [fp, #-36]	; 0x24
300007d0:	ea0001f8 	b	30000fb8 <vsprintf+0x838>
300007d4:	e3a03000 	mov	r3, #0
300007d8:	e50b301c 	str	r3, [fp, #-28]
300007dc:	e51b303c 	ldr	r3, [fp, #-60]	; 0x3c
300007e0:	e2833001 	add	r3, r3, #1
300007e4:	e50b303c 	str	r3, [fp, #-60]	; 0x3c
300007e8:	e51b303c 	ldr	r3, [fp, #-60]	; 0x3c
300007ec:	e5d33000 	ldrb	r3, [r3]
300007f0:	e2433020 	sub	r3, r3, #32
300007f4:	e3530010 	cmp	r3, #16
300007f8:	979ff103 	ldrls	pc, [pc, r3, lsl #2]
300007fc:	ea000024 	b	30000894 <vsprintf+0x114>
30000800:	30000864 	.word	0x30000864
30000804:	30000894 	.word	0x30000894
30000808:	30000894 	.word	0x30000894
3000080c:	30000874 	.word	0x30000874
30000810:	30000894 	.word	0x30000894
30000814:	30000894 	.word	0x30000894
30000818:	30000894 	.word	0x30000894
3000081c:	30000894 	.word	0x30000894
30000820:	30000894 	.word	0x30000894
30000824:	30000894 	.word	0x30000894
30000828:	30000894 	.word	0x30000894
3000082c:	30000854 	.word	0x30000854
30000830:	30000894 	.word	0x30000894
30000834:	30000844 	.word	0x30000844
30000838:	30000894 	.word	0x30000894
3000083c:	30000894 	.word	0x30000894
30000840:	30000884 	.word	0x30000884
30000844:	e51b301c 	ldr	r3, [fp, #-28]
30000848:	e3833010 	orr	r3, r3, #16
3000084c:	e50b301c 	str	r3, [fp, #-28]
30000850:	eaffffe1 	b	300007dc <vsprintf+0x5c>
30000854:	e51b301c 	ldr	r3, [fp, #-28]
30000858:	e3833004 	orr	r3, r3, #4
3000085c:	e50b301c 	str	r3, [fp, #-28]
30000860:	eaffffdd 	b	300007dc <vsprintf+0x5c>
30000864:	e51b301c 	ldr	r3, [fp, #-28]
30000868:	e3833008 	orr	r3, r3, #8
3000086c:	e50b301c 	str	r3, [fp, #-28]
30000870:	eaffffd9 	b	300007dc <vsprintf+0x5c>
30000874:	e51b301c 	ldr	r3, [fp, #-28]
30000878:	e3833020 	orr	r3, r3, #32
3000087c:	e50b301c 	str	r3, [fp, #-28]
30000880:	eaffffd5 	b	300007dc <vsprintf+0x5c>
30000884:	e51b301c 	ldr	r3, [fp, #-28]
30000888:	e3833001 	orr	r3, r3, #1
3000088c:	e50b301c 	str	r3, [fp, #-28]
30000890:	eaffffd1 	b	300007dc <vsprintf+0x5c>
30000894:	e3e03000 	mvn	r3, #0
30000898:	e50b3018 	str	r3, [fp, #-24]
3000089c:	e51b303c 	ldr	r3, [fp, #-60]	; 0x3c
300008a0:	e5d33000 	ldrb	r3, [r3]
300008a4:	e353002f 	cmp	r3, #47	; 0x2f
300008a8:	9a000009 	bls	300008d4 <vsprintf+0x154>
300008ac:	e51b303c 	ldr	r3, [fp, #-60]	; 0x3c
300008b0:	e5d33000 	ldrb	r3, [r3]
300008b4:	e3530039 	cmp	r3, #57	; 0x39
300008b8:	8a000005 	bhi	300008d4 <vsprintf+0x154>
300008bc:	e24b303c 	sub	r3, fp, #60	; 0x3c
300008c0:	e1a00003 	mov	r0, r3
300008c4:	ebfffe60 	bl	3000024c <skip_atoi>
300008c8:	e1a03000 	mov	r3, r0
300008cc:	e50b3018 	str	r3, [fp, #-24]
300008d0:	ea000014 	b	30000928 <vsprintf+0x1a8>
300008d4:	e51b303c 	ldr	r3, [fp, #-60]	; 0x3c
300008d8:	e5d33000 	ldrb	r3, [r3]
300008dc:	e353002a 	cmp	r3, #42	; 0x2a
300008e0:	1a000010 	bne	30000928 <vsprintf+0x1a8>
300008e4:	e51b303c 	ldr	r3, [fp, #-60]	; 0x3c
300008e8:	e2833001 	add	r3, r3, #1
300008ec:	e50b303c 	str	r3, [fp, #-60]	; 0x3c
300008f0:	e51b3040 	ldr	r3, [fp, #-64]	; 0x40
300008f4:	e2832004 	add	r2, r3, #4
300008f8:	e50b2040 	str	r2, [fp, #-64]	; 0x40
300008fc:	e5933000 	ldr	r3, [r3]
30000900:	e50b3018 	str	r3, [fp, #-24]
30000904:	e51b3018 	ldr	r3, [fp, #-24]
30000908:	e3530000 	cmp	r3, #0
3000090c:	aa000005 	bge	30000928 <vsprintf+0x1a8>
30000910:	e51b3018 	ldr	r3, [fp, #-24]
30000914:	e2633000 	rsb	r3, r3, #0
30000918:	e50b3018 	str	r3, [fp, #-24]
3000091c:	e51b301c 	ldr	r3, [fp, #-28]
30000920:	e3833010 	orr	r3, r3, #16
30000924:	e50b301c 	str	r3, [fp, #-28]
30000928:	e3e03000 	mvn	r3, #0
3000092c:	e50b3014 	str	r3, [fp, #-20]
30000930:	e51b303c 	ldr	r3, [fp, #-60]	; 0x3c
30000934:	e5d33000 	ldrb	r3, [r3]
30000938:	e353002e 	cmp	r3, #46	; 0x2e
3000093c:	1a000021 	bne	300009c8 <vsprintf+0x248>
30000940:	e51b303c 	ldr	r3, [fp, #-60]	; 0x3c
30000944:	e2833001 	add	r3, r3, #1
30000948:	e50b303c 	str	r3, [fp, #-60]	; 0x3c
3000094c:	e51b303c 	ldr	r3, [fp, #-60]	; 0x3c
30000950:	e5d33000 	ldrb	r3, [r3]
30000954:	e353002f 	cmp	r3, #47	; 0x2f
30000958:	9a000009 	bls	30000984 <vsprintf+0x204>
3000095c:	e51b303c 	ldr	r3, [fp, #-60]	; 0x3c
30000960:	e5d33000 	ldrb	r3, [r3]
30000964:	e3530039 	cmp	r3, #57	; 0x39
30000968:	8a000005 	bhi	30000984 <vsprintf+0x204>
3000096c:	e24b303c 	sub	r3, fp, #60	; 0x3c
30000970:	e1a00003 	mov	r0, r3
30000974:	ebfffe34 	bl	3000024c <skip_atoi>
30000978:	e1a03000 	mov	r3, r0
3000097c:	e50b3014 	str	r3, [fp, #-20]
30000980:	ea00000b 	b	300009b4 <vsprintf+0x234>
30000984:	e51b303c 	ldr	r3, [fp, #-60]	; 0x3c
30000988:	e5d33000 	ldrb	r3, [r3]
3000098c:	e353002a 	cmp	r3, #42	; 0x2a
30000990:	1a000007 	bne	300009b4 <vsprintf+0x234>
30000994:	e51b303c 	ldr	r3, [fp, #-60]	; 0x3c
30000998:	e2833001 	add	r3, r3, #1
3000099c:	e50b303c 	str	r3, [fp, #-60]	; 0x3c
300009a0:	e51b3040 	ldr	r3, [fp, #-64]	; 0x40
300009a4:	e2832004 	add	r2, r3, #4
300009a8:	e50b2040 	str	r2, [fp, #-64]	; 0x40
300009ac:	e5933000 	ldr	r3, [r3]
300009b0:	e50b3014 	str	r3, [fp, #-20]
300009b4:	e51b3014 	ldr	r3, [fp, #-20]
300009b8:	e3530000 	cmp	r3, #0
300009bc:	aa000001 	bge	300009c8 <vsprintf+0x248>
300009c0:	e3a03000 	mov	r3, #0
300009c4:	e50b3014 	str	r3, [fp, #-20]
300009c8:	e3e03000 	mvn	r3, #0
300009cc:	e50b3010 	str	r3, [fp, #-16]
300009d0:	e51b303c 	ldr	r3, [fp, #-60]	; 0x3c
300009d4:	e5d33000 	ldrb	r3, [r3]
300009d8:	e3530068 	cmp	r3, #104	; 0x68
300009dc:	0a000007 	beq	30000a00 <vsprintf+0x280>
300009e0:	e51b303c 	ldr	r3, [fp, #-60]	; 0x3c
300009e4:	e5d33000 	ldrb	r3, [r3]
300009e8:	e353006c 	cmp	r3, #108	; 0x6c
300009ec:	0a000003 	beq	30000a00 <vsprintf+0x280>
300009f0:	e51b303c 	ldr	r3, [fp, #-60]	; 0x3c
300009f4:	e5d33000 	ldrb	r3, [r3]
300009f8:	e353004c 	cmp	r3, #76	; 0x4c
300009fc:	1a000005 	bne	30000a18 <vsprintf+0x298>
30000a00:	e51b303c 	ldr	r3, [fp, #-60]	; 0x3c
30000a04:	e5d33000 	ldrb	r3, [r3]
30000a08:	e50b3010 	str	r3, [fp, #-16]
30000a0c:	e51b303c 	ldr	r3, [fp, #-60]	; 0x3c
30000a10:	e2833001 	add	r3, r3, #1
30000a14:	e50b303c 	str	r3, [fp, #-60]	; 0x3c
30000a18:	e3a0300a 	mov	r3, #10
30000a1c:	e50b3028 	str	r3, [fp, #-40]	; 0x28
30000a20:	e51b303c 	ldr	r3, [fp, #-60]	; 0x3c
30000a24:	e5d33000 	ldrb	r3, [r3]
30000a28:	e2433025 	sub	r3, r3, #37	; 0x25
30000a2c:	e3530053 	cmp	r3, #83	; 0x53
30000a30:	979ff103 	ldrls	pc, [pc, r3, lsl #2]
30000a34:	ea00010d 	b	30000e70 <vsprintf+0x6f0>
30000a38:	30000e20 	.word	0x30000e20
30000a3c:	30000e70 	.word	0x30000e70
30000a40:	30000e70 	.word	0x30000e70
30000a44:	30000e70 	.word	0x30000e70
30000a48:	30000e70 	.word	0x30000e70
30000a4c:	30000e70 	.word	0x30000e70
30000a50:	30000e70 	.word	0x30000e70
30000a54:	30000e70 	.word	0x30000e70
30000a58:	30000e70 	.word	0x30000e70
30000a5c:	30000e70 	.word	0x30000e70
30000a60:	30000e70 	.word	0x30000e70
30000a64:	30000e70 	.word	0x30000e70
30000a68:	30000e70 	.word	0x30000e70
30000a6c:	30000e70 	.word	0x30000e70
30000a70:	30000e70 	.word	0x30000e70
30000a74:	30000e70 	.word	0x30000e70
30000a78:	30000e70 	.word	0x30000e70
30000a7c:	30000e70 	.word	0x30000e70
30000a80:	30000e70 	.word	0x30000e70
30000a84:	30000e70 	.word	0x30000e70
30000a88:	30000e70 	.word	0x30000e70
30000a8c:	30000e70 	.word	0x30000e70
30000a90:	30000e70 	.word	0x30000e70
30000a94:	30000e70 	.word	0x30000e70
30000a98:	30000e70 	.word	0x30000e70
30000a9c:	30000e70 	.word	0x30000e70
30000aa0:	30000e70 	.word	0x30000e70
30000aa4:	30000e70 	.word	0x30000e70
30000aa8:	30000e70 	.word	0x30000e70
30000aac:	30000e70 	.word	0x30000e70
30000ab0:	30000e70 	.word	0x30000e70
30000ab4:	30000e70 	.word	0x30000e70
30000ab8:	30000e70 	.word	0x30000e70
30000abc:	30000e70 	.word	0x30000e70
30000ac0:	30000e70 	.word	0x30000e70
30000ac4:	30000e70 	.word	0x30000e70
30000ac8:	30000e70 	.word	0x30000e70
30000acc:	30000e70 	.word	0x30000e70
30000ad0:	30000e70 	.word	0x30000e70
30000ad4:	30000e70 	.word	0x30000e70
30000ad8:	30000e70 	.word	0x30000e70
30000adc:	30000e70 	.word	0x30000e70
30000ae0:	30000e70 	.word	0x30000e70
30000ae4:	30000e70 	.word	0x30000e70
30000ae8:	30000e70 	.word	0x30000e70
30000aec:	30000e70 	.word	0x30000e70
30000af0:	30000e70 	.word	0x30000e70
30000af4:	30000e70 	.word	0x30000e70
30000af8:	30000e70 	.word	0x30000e70
30000afc:	30000e70 	.word	0x30000e70
30000b00:	30000e70 	.word	0x30000e70
30000b04:	30000e48 	.word	0x30000e48
30000b08:	30000e70 	.word	0x30000e70
30000b0c:	30000e70 	.word	0x30000e70
30000b10:	30000e70 	.word	0x30000e70
30000b14:	30000e70 	.word	0x30000e70
30000b18:	30000e70 	.word	0x30000e70
30000b1c:	30000e70 	.word	0x30000e70
30000b20:	30000e70 	.word	0x30000e70
30000b24:	30000e70 	.word	0x30000e70
30000b28:	30000e70 	.word	0x30000e70
30000b2c:	30000e70 	.word	0x30000e70
30000b30:	30000b88 	.word	0x30000b88
30000b34:	30000e60 	.word	0x30000e60
30000b38:	30000e70 	.word	0x30000e70
30000b3c:	30000e70 	.word	0x30000e70
30000b40:	30000e70 	.word	0x30000e70
30000b44:	30000e70 	.word	0x30000e70
30000b48:	30000e60 	.word	0x30000e60
30000b4c:	30000e70 	.word	0x30000e70
30000b50:	30000e70 	.word	0x30000e70
30000b54:	30000e70 	.word	0x30000e70
30000b58:	30000e70 	.word	0x30000e70
30000b5c:	30000dbc 	.word	0x30000dbc
30000b60:	30000e3c 	.word	0x30000e3c
30000b64:	30000d5c 	.word	0x30000d5c
30000b68:	30000e70 	.word	0x30000e70
30000b6c:	30000e70 	.word	0x30000e70
30000b70:	30000c2c 	.word	0x30000c2c
30000b74:	30000e70 	.word	0x30000e70
30000b78:	30000ec8 	.word	0x30000ec8
30000b7c:	30000e70 	.word	0x30000e70
30000b80:	30000e70 	.word	0x30000e70
30000b84:	30000e54 	.word	0x30000e54
30000b88:	e51b301c 	ldr	r3, [fp, #-28]
30000b8c:	e2033010 	and	r3, r3, #16
30000b90:	e3530000 	cmp	r3, #0
30000b94:	1a00000c 	bne	30000bcc <vsprintf+0x44c>
30000b98:	ea000005 	b	30000bb4 <vsprintf+0x434>
30000b9c:	e51b3024 	ldr	r3, [fp, #-36]	; 0x24
30000ba0:	e3a02020 	mov	r2, #32
30000ba4:	e5c32000 	strb	r2, [r3]
30000ba8:	e51b3024 	ldr	r3, [fp, #-36]	; 0x24
30000bac:	e2833001 	add	r3, r3, #1
30000bb0:	e50b3024 	str	r3, [fp, #-36]	; 0x24
30000bb4:	e51b3018 	ldr	r3, [fp, #-24]
30000bb8:	e2433001 	sub	r3, r3, #1
30000bbc:	e50b3018 	str	r3, [fp, #-24]
30000bc0:	e51b3018 	ldr	r3, [fp, #-24]
30000bc4:	e3530000 	cmp	r3, #0
30000bc8:	cafffff3 	bgt	30000b9c <vsprintf+0x41c>
30000bcc:	e51b3040 	ldr	r3, [fp, #-64]	; 0x40
30000bd0:	e2832004 	add	r2, r3, #4
30000bd4:	e50b2040 	str	r2, [fp, #-64]	; 0x40
30000bd8:	e5933000 	ldr	r3, [r3]
30000bdc:	e20320ff 	and	r2, r3, #255	; 0xff
30000be0:	e51b3024 	ldr	r3, [fp, #-36]	; 0x24
30000be4:	e5c32000 	strb	r2, [r3]
30000be8:	e51b3024 	ldr	r3, [fp, #-36]	; 0x24
30000bec:	e2833001 	add	r3, r3, #1
30000bf0:	e50b3024 	str	r3, [fp, #-36]	; 0x24
30000bf4:	ea000005 	b	30000c10 <vsprintf+0x490>
30000bf8:	e51b3024 	ldr	r3, [fp, #-36]	; 0x24
30000bfc:	e3a02020 	mov	r2, #32
30000c00:	e5c32000 	strb	r2, [r3]
30000c04:	e51b3024 	ldr	r3, [fp, #-36]	; 0x24
30000c08:	e2833001 	add	r3, r3, #1
30000c0c:	e50b3024 	str	r3, [fp, #-36]	; 0x24
30000c10:	e51b3018 	ldr	r3, [fp, #-24]
30000c14:	e2433001 	sub	r3, r3, #1
30000c18:	e50b3018 	str	r3, [fp, #-24]
30000c1c:	e51b3018 	ldr	r3, [fp, #-24]
30000c20:	e3530000 	cmp	r3, #0
30000c24:	cafffff3 	bgt	30000bf8 <vsprintf+0x478>
30000c28:	ea0000e2 	b	30000fb8 <vsprintf+0x838>
30000c2c:	e51b3040 	ldr	r3, [fp, #-64]	; 0x40
30000c30:	e2832004 	add	r2, r3, #4
30000c34:	e50b2040 	str	r2, [fp, #-64]	; 0x40
30000c38:	e5933000 	ldr	r3, [r3]
30000c3c:	e50b3020 	str	r3, [fp, #-32]
30000c40:	e51b3020 	ldr	r3, [fp, #-32]
30000c44:	e3530000 	cmp	r3, #0
30000c48:	1a000001 	bne	30000c54 <vsprintf+0x4d4>
30000c4c:	e59f33a4 	ldr	r3, [pc, #932]	; 30000ff8 <vsprintf+0x878>
30000c50:	e50b3020 	str	r3, [fp, #-32]
30000c54:	e51b0020 	ldr	r0, [fp, #-32]
30000c58:	e51b1014 	ldr	r1, [fp, #-20]
30000c5c:	eb000114 	bl	300010b4 <strnlen>
30000c60:	e1a03000 	mov	r3, r0
30000c64:	e50b3034 	str	r3, [fp, #-52]	; 0x34
30000c68:	e51b301c 	ldr	r3, [fp, #-28]
30000c6c:	e2033010 	and	r3, r3, #16
30000c70:	e3530000 	cmp	r3, #0
30000c74:	1a000011 	bne	30000cc0 <vsprintf+0x540>
30000c78:	ea000005 	b	30000c94 <vsprintf+0x514>
30000c7c:	e51b3024 	ldr	r3, [fp, #-36]	; 0x24
30000c80:	e3a02020 	mov	r2, #32
30000c84:	e5c32000 	strb	r2, [r3]
30000c88:	e51b3024 	ldr	r3, [fp, #-36]	; 0x24
30000c8c:	e2833001 	add	r3, r3, #1
30000c90:	e50b3024 	str	r3, [fp, #-36]	; 0x24
30000c94:	e51b2018 	ldr	r2, [fp, #-24]
30000c98:	e51b3034 	ldr	r3, [fp, #-52]	; 0x34
30000c9c:	e1520003 	cmp	r2, r3
30000ca0:	d3a03000 	movle	r3, #0
30000ca4:	c3a03001 	movgt	r3, #1
30000ca8:	e20330ff 	and	r3, r3, #255	; 0xff
30000cac:	e51b2018 	ldr	r2, [fp, #-24]
30000cb0:	e2422001 	sub	r2, r2, #1
30000cb4:	e50b2018 	str	r2, [fp, #-24]
30000cb8:	e3530000 	cmp	r3, #0
30000cbc:	1affffee 	bne	30000c7c <vsprintf+0x4fc>
30000cc0:	e3a03000 	mov	r3, #0
30000cc4:	e50b302c 	str	r3, [fp, #-44]	; 0x2c
30000cc8:	ea00000c 	b	30000d00 <vsprintf+0x580>
30000ccc:	e51b3020 	ldr	r3, [fp, #-32]
30000cd0:	e5d32000 	ldrb	r2, [r3]
30000cd4:	e51b3024 	ldr	r3, [fp, #-36]	; 0x24
30000cd8:	e5c32000 	strb	r2, [r3]
30000cdc:	e51b3024 	ldr	r3, [fp, #-36]	; 0x24
30000ce0:	e2833001 	add	r3, r3, #1
30000ce4:	e50b3024 	str	r3, [fp, #-36]	; 0x24
30000ce8:	e51b3020 	ldr	r3, [fp, #-32]
30000cec:	e2833001 	add	r3, r3, #1
30000cf0:	e50b3020 	str	r3, [fp, #-32]
30000cf4:	e51b302c 	ldr	r3, [fp, #-44]	; 0x2c
30000cf8:	e2833001 	add	r3, r3, #1
30000cfc:	e50b302c 	str	r3, [fp, #-44]	; 0x2c
30000d00:	e51b202c 	ldr	r2, [fp, #-44]	; 0x2c
30000d04:	e51b3034 	ldr	r3, [fp, #-52]	; 0x34
30000d08:	e1520003 	cmp	r2, r3
30000d0c:	baffffee 	blt	30000ccc <vsprintf+0x54c>
30000d10:	ea000005 	b	30000d2c <vsprintf+0x5ac>
30000d14:	e51b3024 	ldr	r3, [fp, #-36]	; 0x24
30000d18:	e3a02020 	mov	r2, #32
30000d1c:	e5c32000 	strb	r2, [r3]
30000d20:	e51b3024 	ldr	r3, [fp, #-36]	; 0x24
30000d24:	e2833001 	add	r3, r3, #1
30000d28:	e50b3024 	str	r3, [fp, #-36]	; 0x24
30000d2c:	e51b2018 	ldr	r2, [fp, #-24]
30000d30:	e51b3034 	ldr	r3, [fp, #-52]	; 0x34
30000d34:	e1520003 	cmp	r2, r3
30000d38:	d3a03000 	movle	r3, #0
30000d3c:	c3a03001 	movgt	r3, #1
30000d40:	e20330ff 	and	r3, r3, #255	; 0xff
30000d44:	e51b2018 	ldr	r2, [fp, #-24]
30000d48:	e2422001 	sub	r2, r2, #1
30000d4c:	e50b2018 	str	r2, [fp, #-24]
30000d50:	e3530000 	cmp	r3, #0
30000d54:	1affffee 	bne	30000d14 <vsprintf+0x594>
30000d58:	ea000096 	b	30000fb8 <vsprintf+0x838>
30000d5c:	e51b3018 	ldr	r3, [fp, #-24]
30000d60:	e3730001 	cmn	r3, #1
30000d64:	1a000004 	bne	30000d7c <vsprintf+0x5fc>
30000d68:	e3a03008 	mov	r3, #8
30000d6c:	e50b3018 	str	r3, [fp, #-24]
30000d70:	e51b301c 	ldr	r3, [fp, #-28]
30000d74:	e3833001 	orr	r3, r3, #1
30000d78:	e50b301c 	str	r3, [fp, #-28]
30000d7c:	e51b3040 	ldr	r3, [fp, #-64]	; 0x40
30000d80:	e2832004 	add	r2, r3, #4
30000d84:	e50b2040 	str	r2, [fp, #-64]	; 0x40
30000d88:	e5933000 	ldr	r3, [r3]
30000d8c:	e51b2014 	ldr	r2, [fp, #-20]
30000d90:	e58d2000 	str	r2, [sp]
30000d94:	e51b201c 	ldr	r2, [fp, #-28]
30000d98:	e58d2004 	str	r2, [sp, #4]
30000d9c:	e51b0024 	ldr	r0, [fp, #-36]	; 0x24
30000da0:	e1a01003 	mov	r1, r3
30000da4:	e3a02010 	mov	r2, #16
30000da8:	e51b3018 	ldr	r3, [fp, #-24]
30000dac:	ebfffd4b 	bl	300002e0 <number>
30000db0:	e1a03000 	mov	r3, r0
30000db4:	e50b3024 	str	r3, [fp, #-36]	; 0x24
30000db8:	ea00007e 	b	30000fb8 <vsprintf+0x838>
30000dbc:	e51b3010 	ldr	r3, [fp, #-16]
30000dc0:	e353006c 	cmp	r3, #108	; 0x6c
30000dc4:	1a00000a 	bne	30000df4 <vsprintf+0x674>
30000dc8:	e51b3040 	ldr	r3, [fp, #-64]	; 0x40
30000dcc:	e2832004 	add	r2, r3, #4
30000dd0:	e50b2040 	str	r2, [fp, #-64]	; 0x40
30000dd4:	e5933000 	ldr	r3, [r3]
30000dd8:	e50b300c 	str	r3, [fp, #-12]
30000ddc:	e51b2024 	ldr	r2, [fp, #-36]	; 0x24
30000de0:	e51b3038 	ldr	r3, [fp, #-56]	; 0x38
30000de4:	e0632002 	rsb	r2, r3, r2
30000de8:	e51b300c 	ldr	r3, [fp, #-12]
30000dec:	e5832000 	str	r2, [r3]
30000df0:	ea000070 	b	30000fb8 <vsprintf+0x838>
30000df4:	e51b3040 	ldr	r3, [fp, #-64]	; 0x40
30000df8:	e2832004 	add	r2, r3, #4
30000dfc:	e50b2040 	str	r2, [fp, #-64]	; 0x40
30000e00:	e5933000 	ldr	r3, [r3]
30000e04:	e50b3008 	str	r3, [fp, #-8]
30000e08:	e51b2024 	ldr	r2, [fp, #-36]	; 0x24
30000e0c:	e51b3038 	ldr	r3, [fp, #-56]	; 0x38
30000e10:	e0632002 	rsb	r2, r3, r2
30000e14:	e51b3008 	ldr	r3, [fp, #-8]
30000e18:	e5832000 	str	r2, [r3]
30000e1c:	ea000065 	b	30000fb8 <vsprintf+0x838>
30000e20:	e51b3024 	ldr	r3, [fp, #-36]	; 0x24
30000e24:	e3a02025 	mov	r2, #37	; 0x25
30000e28:	e5c32000 	strb	r2, [r3]
30000e2c:	e51b3024 	ldr	r3, [fp, #-36]	; 0x24
30000e30:	e2833001 	add	r3, r3, #1
30000e34:	e50b3024 	str	r3, [fp, #-36]	; 0x24
30000e38:	ea00005e 	b	30000fb8 <vsprintf+0x838>
30000e3c:	e3a03008 	mov	r3, #8
30000e40:	e50b3028 	str	r3, [fp, #-40]	; 0x28
30000e44:	ea000020 	b	30000ecc <vsprintf+0x74c>
30000e48:	e51b301c 	ldr	r3, [fp, #-28]
30000e4c:	e3833040 	orr	r3, r3, #64	; 0x40
30000e50:	e50b301c 	str	r3, [fp, #-28]
30000e54:	e3a03010 	mov	r3, #16
30000e58:	e50b3028 	str	r3, [fp, #-40]	; 0x28
30000e5c:	ea00001a 	b	30000ecc <vsprintf+0x74c>
30000e60:	e51b301c 	ldr	r3, [fp, #-28]
30000e64:	e3833002 	orr	r3, r3, #2
30000e68:	e50b301c 	str	r3, [fp, #-28]
30000e6c:	ea000016 	b	30000ecc <vsprintf+0x74c>
30000e70:	e51b3024 	ldr	r3, [fp, #-36]	; 0x24
30000e74:	e3a02025 	mov	r2, #37	; 0x25
30000e78:	e5c32000 	strb	r2, [r3]
30000e7c:	e51b3024 	ldr	r3, [fp, #-36]	; 0x24
30000e80:	e2833001 	add	r3, r3, #1
30000e84:	e50b3024 	str	r3, [fp, #-36]	; 0x24
30000e88:	e51b303c 	ldr	r3, [fp, #-60]	; 0x3c
30000e8c:	e5d33000 	ldrb	r3, [r3]
30000e90:	e3530000 	cmp	r3, #0
30000e94:	0a000007 	beq	30000eb8 <vsprintf+0x738>
30000e98:	e51b303c 	ldr	r3, [fp, #-60]	; 0x3c
30000e9c:	e5d32000 	ldrb	r2, [r3]
30000ea0:	e51b3024 	ldr	r3, [fp, #-36]	; 0x24
30000ea4:	e5c32000 	strb	r2, [r3]
30000ea8:	e51b3024 	ldr	r3, [fp, #-36]	; 0x24
30000eac:	e2833001 	add	r3, r3, #1
30000eb0:	e50b3024 	str	r3, [fp, #-36]	; 0x24
30000eb4:	ea00003f 	b	30000fb8 <vsprintf+0x838>
30000eb8:	e51b303c 	ldr	r3, [fp, #-60]	; 0x3c
30000ebc:	e2433001 	sub	r3, r3, #1
30000ec0:	e50b303c 	str	r3, [fp, #-60]	; 0x3c
30000ec4:	ea00003b 	b	30000fb8 <vsprintf+0x838>
30000ec8:	e1a00000 	nop			; (mov r0, r0)
30000ecc:	e51b3010 	ldr	r3, [fp, #-16]
30000ed0:	e353006c 	cmp	r3, #108	; 0x6c
30000ed4:	1a000005 	bne	30000ef0 <vsprintf+0x770>
30000ed8:	e51b3040 	ldr	r3, [fp, #-64]	; 0x40
30000edc:	e2832004 	add	r2, r3, #4
30000ee0:	e50b2040 	str	r2, [fp, #-64]	; 0x40
30000ee4:	e5933000 	ldr	r3, [r3]
30000ee8:	e50b3030 	str	r3, [fp, #-48]	; 0x30
30000eec:	ea000025 	b	30000f88 <vsprintf+0x808>
30000ef0:	e51b3010 	ldr	r3, [fp, #-16]
30000ef4:	e3530068 	cmp	r3, #104	; 0x68
30000ef8:	1a000011 	bne	30000f44 <vsprintf+0x7c4>
30000efc:	e51b3040 	ldr	r3, [fp, #-64]	; 0x40
30000f00:	e2832004 	add	r2, r3, #4
30000f04:	e50b2040 	str	r2, [fp, #-64]	; 0x40
30000f08:	e5933000 	ldr	r3, [r3]
30000f0c:	e1a03803 	lsl	r3, r3, #16
30000f10:	e1a03823 	lsr	r3, r3, #16
30000f14:	e50b3030 	str	r3, [fp, #-48]	; 0x30
30000f18:	e51b301c 	ldr	r3, [fp, #-28]
30000f1c:	e2033002 	and	r3, r3, #2
30000f20:	e3530000 	cmp	r3, #0
30000f24:	0a000016 	beq	30000f84 <vsprintf+0x804>
30000f28:	e51b3030 	ldr	r3, [fp, #-48]	; 0x30
30000f2c:	e1a03803 	lsl	r3, r3, #16
30000f30:	e1a03823 	lsr	r3, r3, #16
30000f34:	e1a03803 	lsl	r3, r3, #16
30000f38:	e1a03843 	asr	r3, r3, #16
30000f3c:	e50b3030 	str	r3, [fp, #-48]	; 0x30
30000f40:	ea000010 	b	30000f88 <vsprintf+0x808>
30000f44:	e51b301c 	ldr	r3, [fp, #-28]
30000f48:	e2033002 	and	r3, r3, #2
30000f4c:	e3530000 	cmp	r3, #0
30000f50:	0a000005 	beq	30000f6c <vsprintf+0x7ec>
30000f54:	e51b3040 	ldr	r3, [fp, #-64]	; 0x40
30000f58:	e2832004 	add	r2, r3, #4
30000f5c:	e50b2040 	str	r2, [fp, #-64]	; 0x40
30000f60:	e5933000 	ldr	r3, [r3]
30000f64:	e50b3030 	str	r3, [fp, #-48]	; 0x30
30000f68:	ea000006 	b	30000f88 <vsprintf+0x808>
30000f6c:	e51b3040 	ldr	r3, [fp, #-64]	; 0x40
30000f70:	e2832004 	add	r2, r3, #4
30000f74:	e50b2040 	str	r2, [fp, #-64]	; 0x40
30000f78:	e5933000 	ldr	r3, [r3]
30000f7c:	e50b3030 	str	r3, [fp, #-48]	; 0x30
30000f80:	ea000000 	b	30000f88 <vsprintf+0x808>
30000f84:	e1a00000 	nop			; (mov r0, r0)
30000f88:	e51b3030 	ldr	r3, [fp, #-48]	; 0x30
30000f8c:	e51b2014 	ldr	r2, [fp, #-20]
30000f90:	e58d2000 	str	r2, [sp]
30000f94:	e51b201c 	ldr	r2, [fp, #-28]
30000f98:	e58d2004 	str	r2, [sp, #4]
30000f9c:	e51b0024 	ldr	r0, [fp, #-36]	; 0x24
30000fa0:	e1a01003 	mov	r1, r3
30000fa4:	e51b2028 	ldr	r2, [fp, #-40]	; 0x28
30000fa8:	e51b3018 	ldr	r3, [fp, #-24]
30000fac:	ebfffccb 	bl	300002e0 <number>
30000fb0:	e1a03000 	mov	r3, r0
30000fb4:	e50b3024 	str	r3, [fp, #-36]	; 0x24
30000fb8:	e51b303c 	ldr	r3, [fp, #-60]	; 0x3c
30000fbc:	e2833001 	add	r3, r3, #1
30000fc0:	e50b303c 	str	r3, [fp, #-60]	; 0x3c
30000fc4:	e51b303c 	ldr	r3, [fp, #-60]	; 0x3c
30000fc8:	e5d33000 	ldrb	r3, [r3]
30000fcc:	e3530000 	cmp	r3, #0
30000fd0:	1afffdf3 	bne	300007a4 <vsprintf+0x24>
30000fd4:	e51b3024 	ldr	r3, [fp, #-36]	; 0x24
30000fd8:	e3a02000 	mov	r2, #0
30000fdc:	e5c32000 	strb	r2, [r3]
30000fe0:	e51b2024 	ldr	r2, [fp, #-36]	; 0x24
30000fe4:	e51b3038 	ldr	r3, [fp, #-56]	; 0x38
30000fe8:	e0633002 	rsb	r3, r3, r2
30000fec:	e1a00003 	mov	r0, r3
30000ff0:	e24bd004 	sub	sp, fp, #4
30000ff4:	e8bd8800 	pop	{fp, pc}
30000ff8:	300019a0 	.word	0x300019a0

30000ffc <printf>:
30000ffc:	e92d000f 	push	{r0, r1, r2, r3}
30001000:	e92d4800 	push	{fp, lr}
30001004:	e28db004 	add	fp, sp, #4
30001008:	e24ddf42 	sub	sp, sp, #264	; 0x108
3000100c:	e28b3008 	add	r3, fp, #8
30001010:	e50b300c 	str	r3, [fp, #-12]
30001014:	e51b300c 	ldr	r3, [fp, #-12]
30001018:	e24b2f43 	sub	r2, fp, #268	; 0x10c
3000101c:	e1a00002 	mov	r0, r2
30001020:	e59b1004 	ldr	r1, [fp, #4]
30001024:	e1a02003 	mov	r2, r3
30001028:	ebfffdd4 	bl	30000780 <vsprintf>
3000102c:	e1a03000 	mov	r3, r0
30001030:	e50b3008 	str	r3, [fp, #-8]
30001034:	e24b3f43 	sub	r3, fp, #268	; 0x10c
30001038:	e1a00003 	mov	r0, r3
3000103c:	ebfffc48 	bl	30000164 <puts>
30001040:	e51b3008 	ldr	r3, [fp, #-8]
30001044:	e1a00003 	mov	r0, r3
30001048:	e24bd004 	sub	sp, fp, #4
3000104c:	e8bd4800 	pop	{fp, lr}
30001050:	e28dd010 	add	sp, sp, #16
30001054:	e12fff1e 	bx	lr

30001058 <printf_raw>:
30001058:	e92d000f 	push	{r0, r1, r2, r3}
3000105c:	e92d4800 	push	{fp, lr}
30001060:	e28db004 	add	fp, sp, #4
30001064:	e24ddf42 	sub	sp, sp, #264	; 0x108
30001068:	e28b3008 	add	r3, fp, #8
3000106c:	e50b300c 	str	r3, [fp, #-12]
30001070:	e51b300c 	ldr	r3, [fp, #-12]
30001074:	e24b2f43 	sub	r2, fp, #268	; 0x10c
30001078:	e1a00002 	mov	r0, r2
3000107c:	e59b1004 	ldr	r1, [fp, #4]
30001080:	e1a02003 	mov	r2, r3
30001084:	ebfffdbd 	bl	30000780 <vsprintf>
30001088:	e1a03000 	mov	r3, r0
3000108c:	e50b3008 	str	r3, [fp, #-8]
30001090:	e24b3f43 	sub	r3, fp, #268	; 0x10c
30001094:	e1a00003 	mov	r0, r3
30001098:	ebfffc52 	bl	300001e8 <puts_raw>
3000109c:	e51b3008 	ldr	r3, [fp, #-8]
300010a0:	e1a00003 	mov	r0, r3
300010a4:	e24bd004 	sub	sp, fp, #4
300010a8:	e8bd4800 	pop	{fp, lr}
300010ac:	e28dd010 	add	sp, sp, #16
300010b0:	e12fff1e 	bx	lr

300010b4 <strnlen>:
300010b4:	e52db004 	push	{fp}		; (str fp, [sp, #-4]!)
300010b8:	e28db000 	add	fp, sp, #0
300010bc:	e24dd00c 	sub	sp, sp, #12
300010c0:	e50b0008 	str	r0, [fp, #-8]
300010c4:	e50b100c 	str	r1, [fp, #-12]
300010c8:	e51b3008 	ldr	r3, [fp, #-8]
300010cc:	e50b3004 	str	r3, [fp, #-4]
300010d0:	ea000002 	b	300010e0 <strnlen+0x2c>
300010d4:	e51b3004 	ldr	r3, [fp, #-4]
300010d8:	e2833001 	add	r3, r3, #1
300010dc:	e50b3004 	str	r3, [fp, #-4]
300010e0:	e51b300c 	ldr	r3, [fp, #-12]
300010e4:	e3530000 	cmp	r3, #0
300010e8:	03a03000 	moveq	r3, #0
300010ec:	13a03001 	movne	r3, #1
300010f0:	e20330ff 	and	r3, r3, #255	; 0xff
300010f4:	e51b200c 	ldr	r2, [fp, #-12]
300010f8:	e2422001 	sub	r2, r2, #1
300010fc:	e50b200c 	str	r2, [fp, #-12]
30001100:	e3530000 	cmp	r3, #0
30001104:	0a000003 	beq	30001118 <strnlen+0x64>
30001108:	e51b3004 	ldr	r3, [fp, #-4]
3000110c:	e5d33000 	ldrb	r3, [r3]
30001110:	e3530000 	cmp	r3, #0
30001114:	1affffee 	bne	300010d4 <strnlen+0x20>
30001118:	e51b2004 	ldr	r2, [fp, #-4]
3000111c:	e51b3008 	ldr	r3, [fp, #-8]
30001120:	e0633002 	rsb	r3, r3, r2
30001124:	e1a00003 	mov	r0, r3
30001128:	e28bd000 	add	sp, fp, #0
3000112c:	e8bd0800 	pop	{fp}
30001130:	e12fff1e 	bx	lr

30001134 <memcpy>:
30001134:	e52db004 	push	{fp}		; (str fp, [sp, #-4]!)
30001138:	e28db000 	add	fp, sp, #0
3000113c:	e24dd014 	sub	sp, sp, #20
30001140:	e50b000c 	str	r0, [fp, #-12]
30001144:	e50b1010 	str	r1, [fp, #-16]
30001148:	e50b2014 	str	r2, [fp, #-20]
3000114c:	e51b300c 	ldr	r3, [fp, #-12]
30001150:	e50b3008 	str	r3, [fp, #-8]
30001154:	e51b3010 	ldr	r3, [fp, #-16]
30001158:	e50b3004 	str	r3, [fp, #-4]
3000115c:	ea000009 	b	30001188 <memcpy+0x54>
30001160:	e51b3004 	ldr	r3, [fp, #-4]
30001164:	e5d32000 	ldrb	r2, [r3]
30001168:	e51b3008 	ldr	r3, [fp, #-8]
3000116c:	e5c32000 	strb	r2, [r3]
30001170:	e51b3008 	ldr	r3, [fp, #-8]
30001174:	e2833001 	add	r3, r3, #1
30001178:	e50b3008 	str	r3, [fp, #-8]
3000117c:	e51b3004 	ldr	r3, [fp, #-4]
30001180:	e2833001 	add	r3, r3, #1
30001184:	e50b3004 	str	r3, [fp, #-4]
30001188:	e51b3014 	ldr	r3, [fp, #-20]
3000118c:	e3530000 	cmp	r3, #0
30001190:	03a03000 	moveq	r3, #0
30001194:	13a03001 	movne	r3, #1
30001198:	e20330ff 	and	r3, r3, #255	; 0xff
3000119c:	e51b2014 	ldr	r2, [fp, #-20]
300011a0:	e2422001 	sub	r2, r2, #1
300011a4:	e50b2014 	str	r2, [fp, #-20]
300011a8:	e3530000 	cmp	r3, #0
300011ac:	1affffeb 	bne	30001160 <memcpy+0x2c>
300011b0:	e51b300c 	ldr	r3, [fp, #-12]
300011b4:	e1a00003 	mov	r0, r3
300011b8:	e28bd000 	add	sp, fp, #0
300011bc:	e8bd0800 	pop	{fp}
300011c0:	e12fff1e 	bx	lr

300011c4 <memset>:
300011c4:	e52db004 	push	{fp}		; (str fp, [sp, #-4]!)
300011c8:	e28db000 	add	fp, sp, #0
300011cc:	e24dd010 	sub	sp, sp, #16
300011d0:	e50b0008 	str	r0, [fp, #-8]
300011d4:	e50b100c 	str	r1, [fp, #-12]
300011d8:	e50b2010 	str	r2, [fp, #-16]
300011dc:	e51b3008 	ldr	r3, [fp, #-8]
300011e0:	e50b3004 	str	r3, [fp, #-4]
300011e4:	ea000006 	b	30001204 <memset+0x40>
300011e8:	e51b300c 	ldr	r3, [fp, #-12]
300011ec:	e20320ff 	and	r2, r3, #255	; 0xff
300011f0:	e51b3004 	ldr	r3, [fp, #-4]
300011f4:	e5c32000 	strb	r2, [r3]
300011f8:	e51b3004 	ldr	r3, [fp, #-4]
300011fc:	e2833001 	add	r3, r3, #1
30001200:	e50b3004 	str	r3, [fp, #-4]
30001204:	e51b3010 	ldr	r3, [fp, #-16]
30001208:	e3530000 	cmp	r3, #0
3000120c:	03a03000 	moveq	r3, #0
30001210:	13a03001 	movne	r3, #1
30001214:	e20330ff 	and	r3, r3, #255	; 0xff
30001218:	e51b2010 	ldr	r2, [fp, #-16]
3000121c:	e2422001 	sub	r2, r2, #1
30001220:	e50b2010 	str	r2, [fp, #-16]
30001224:	e3530000 	cmp	r3, #0
30001228:	1affffee 	bne	300011e8 <memset+0x24>
3000122c:	e51b3008 	ldr	r3, [fp, #-8]
30001230:	e1a00003 	mov	r0, r3
30001234:	e28bd000 	add	sp, fp, #0
30001238:	e8bd0800 	pop	{fp}
3000123c:	e12fff1e 	bx	lr

30001240 <__get_cp15_control>:
30001240:	ee110f10 	mrc	15, 0, r0, cr1, cr0, {0}
30001244:	e1a0f00e 	mov	pc, lr

30001248 <__set_cp15_control>:
30001248:	ee010f10 	mcr	15, 0, r0, cr1, cr0, {0}
3000124c:	e1a0f00e 	mov	pc, lr

30001250 <__set_ttb_reg>:
30001250:	ee020f10 	mcr	15, 0, r0, cr2, cr0, {0}
30001254:	e1a0f00e 	mov	pc, lr

30001258 <__set_domain_reg>:
30001258:	ee030f10 	mcr	15, 0, r0, cr3, cr0, {0}
3000125c:	e1a0f00e 	mov	pc, lr

30001260 <alloc_page_table>:
30001260:	e52db004 	push	{fp}		; (str fp, [sp, #-4]!)
30001264:	e28db000 	add	fp, sp, #0
30001268:	e24dd004 	sub	sp, sp, #4
3000126c:	e50b0004 	str	r0, [fp, #-4]
30001270:	e51b3004 	ldr	r3, [fp, #-4]
30001274:	e3c33dff 	bic	r3, r3, #16320	; 0x3fc0
30001278:	e3c3303f 	bic	r3, r3, #63	; 0x3f
3000127c:	e59f2038 	ldr	r2, [pc, #56]	; 300012bc <alloc_page_table+0x5c>
30001280:	e5823000 	str	r3, [r2]
30001284:	e51b3004 	ldr	r3, [fp, #-4]
30001288:	e2833901 	add	r3, r3, #16384	; 0x4000
3000128c:	e3c33fff 	bic	r3, r3, #1020	; 0x3fc
30001290:	e3c33003 	bic	r3, r3, #3
30001294:	e59f2024 	ldr	r2, [pc, #36]	; 300012c0 <alloc_page_table+0x60>
30001298:	e5823000 	str	r3, [r2]
3000129c:	e59f301c 	ldr	r3, [pc, #28]	; 300012c0 <alloc_page_table+0x60>
300012a0:	e5933000 	ldr	r3, [r3]
300012a4:	e2832501 	add	r2, r3, #4194304	; 0x400000
300012a8:	e59f3014 	ldr	r3, [pc, #20]	; 300012c4 <alloc_page_table+0x64>
300012ac:	e5832000 	str	r2, [r3]
300012b0:	e28bd000 	add	sp, fp, #0
300012b4:	e8bd0800 	pop	{fp}
300012b8:	e12fff1e 	bx	lr
300012bc:	30001a24 	.word	0x30001a24
300012c0:	30001a28 	.word	0x30001a28
300012c4:	30001a20 	.word	0x30001a20

300012c8 <build_section>:
300012c8:	e52db004 	push	{fp}		; (str fp, [sp, #-4]!)
300012cc:	e28db000 	add	fp, sp, #0
300012d0:	e24dd020 	sub	sp, sp, #32
300012d4:	e50b0014 	str	r0, [fp, #-20]
300012d8:	e50b1018 	str	r1, [fp, #-24]
300012dc:	e50b201c 	str	r2, [fp, #-28]
300012e0:	e50b3020 	str	r3, [fp, #-32]
300012e4:	e3a03000 	mov	r3, #0
300012e8:	e50b300c 	str	r3, [fp, #-12]
300012ec:	e51b3018 	ldr	r3, [fp, #-24]
300012f0:	e1a03a23 	lsr	r3, r3, #20
300012f4:	e50b3004 	str	r3, [fp, #-4]
300012f8:	e51b3014 	ldr	r3, [fp, #-20]
300012fc:	e1a03a23 	lsr	r3, r3, #20
30001300:	e50b300c 	str	r3, [fp, #-12]
30001304:	e51b300c 	ldr	r3, [fp, #-12]
30001308:	e1a02103 	lsl	r2, r3, #2
3000130c:	e59f308c 	ldr	r3, [pc, #140]	; 300013a0 <build_section+0xd8>
30001310:	e5933000 	ldr	r3, [r3]
30001314:	e1823003 	orr	r3, r2, r3
30001318:	e50b3008 	str	r3, [fp, #-8]
3000131c:	e3a03000 	mov	r3, #0
30001320:	e50b3010 	str	r3, [fp, #-16]
30001324:	ea000016 	b	30001384 <build_section+0xbc>
30001328:	e51b3008 	ldr	r3, [fp, #-8]
3000132c:	e51b2004 	ldr	r2, [fp, #-4]
30001330:	e1a01a02 	lsl	r1, r2, #20
30001334:	e59b2004 	ldr	r2, [fp, #4]
30001338:	e1a02502 	lsl	r2, r2, #10
3000133c:	e1811002 	orr	r1, r1, r2
30001340:	e51b2020 	ldr	r2, [fp, #-32]
30001344:	e1a02282 	lsl	r2, r2, #5
30001348:	e1811002 	orr	r1, r1, r2
3000134c:	e59b2008 	ldr	r2, [fp, #8]
30001350:	e1a02102 	lsl	r2, r2, #2
30001354:	e1812002 	orr	r2, r1, r2
30001358:	e3822012 	orr	r2, r2, #18
3000135c:	e5832000 	str	r2, [r3]
30001360:	e51b3008 	ldr	r3, [fp, #-8]
30001364:	e2833004 	add	r3, r3, #4
30001368:	e50b3008 	str	r3, [fp, #-8]
3000136c:	e51b3004 	ldr	r3, [fp, #-4]
30001370:	e2833001 	add	r3, r3, #1
30001374:	e50b3004 	str	r3, [fp, #-4]
30001378:	e51b3010 	ldr	r3, [fp, #-16]
3000137c:	e2833001 	add	r3, r3, #1
30001380:	e50b3010 	str	r3, [fp, #-16]
30001384:	e51b2010 	ldr	r2, [fp, #-16]
30001388:	e51b301c 	ldr	r3, [fp, #-28]
3000138c:	e1520003 	cmp	r2, r3
30001390:	baffffe4 	blt	30001328 <build_section+0x60>
30001394:	e28bd000 	add	sp, fp, #0
30001398:	e8bd0800 	pop	{fp}
3000139c:	e12fff1e 	bx	lr
300013a0:	30001a24 	.word	0x30001a24

300013a4 <enable_mmu>:
300013a4:	e92d4800 	push	{fp, lr}
300013a8:	e28db004 	add	fp, sp, #4
300013ac:	e24dd004 	sub	sp, sp, #4
300013b0:	ebffffa2 	bl	30001240 <__get_cp15_control>
300013b4:	e1a03000 	mov	r3, r0
300013b8:	e50b3008 	str	r3, [fp, #-8]
300013bc:	e51b3008 	ldr	r3, [fp, #-8]
300013c0:	e3c33dc2 	bic	r3, r3, #12416	; 0x3080
300013c4:	e3c33005 	bic	r3, r3, #5
300013c8:	e50b3008 	str	r3, [fp, #-8]
300013cc:	e51b3008 	ldr	r3, [fp, #-8]
300013d0:	e3833a02 	orr	r3, r3, #8192	; 0x2000
300013d4:	e3833001 	orr	r3, r3, #1
300013d8:	e50b3008 	str	r3, [fp, #-8]
300013dc:	e51b0008 	ldr	r0, [fp, #-8]
300013e0:	ebffff98 	bl	30001248 <__set_cp15_control>
300013e4:	e24bd004 	sub	sp, fp, #4
300013e8:	e8bd8800 	pop	{fp, pc}

300013ec <find_and_build_level1_page_table>:
300013ec:	e52db004 	push	{fp}		; (str fp, [sp, #-4]!)
300013f0:	e28db000 	add	fp, sp, #0
300013f4:	e24dd01c 	sub	sp, sp, #28
300013f8:	e50b0018 	str	r0, [fp, #-24]
300013fc:	e50b101c 	str	r1, [fp, #-28]
30001400:	e51b3018 	ldr	r3, [fp, #-24]
30001404:	e1a03a23 	lsr	r3, r3, #20
30001408:	e1a03a03 	lsl	r3, r3, #20
3000140c:	e1a03923 	lsr	r3, r3, #18
30001410:	e50b3014 	str	r3, [fp, #-20]
30001414:	e59f30c4 	ldr	r3, [pc, #196]	; 300014e0 <find_and_build_level1_page_table+0xf4>
30001418:	e5932000 	ldr	r2, [r3]
3000141c:	e51b3014 	ldr	r3, [fp, #-20]
30001420:	e1823003 	orr	r3, r2, r3
30001424:	e3c33003 	bic	r3, r3, #3
30001428:	e50b3010 	str	r3, [fp, #-16]
3000142c:	e59f30ac 	ldr	r3, [pc, #172]	; 300014e0 <find_and_build_level1_page_table+0xf4>
30001430:	e5933000 	ldr	r3, [r3]
30001434:	e51b2010 	ldr	r2, [fp, #-16]
30001438:	e0633002 	rsb	r3, r3, r2
3000143c:	e1a03123 	lsr	r3, r3, #2
30001440:	e50b3008 	str	r3, [fp, #-8]
30001444:	e51b3010 	ldr	r3, [fp, #-16]
30001448:	e5933000 	ldr	r3, [r3]
3000144c:	e50b3004 	str	r3, [fp, #-4]
30001450:	e51b3004 	ldr	r3, [fp, #-4]
30001454:	e2033003 	and	r3, r3, #3
30001458:	e3530001 	cmp	r3, #1
3000145c:	0a000013 	beq	300014b0 <find_and_build_level1_page_table+0xc4>
30001460:	e51b3008 	ldr	r3, [fp, #-8]
30001464:	e1a03503 	lsl	r3, r3, #10
30001468:	e1a02003 	mov	r2, r3
3000146c:	e59f3070 	ldr	r3, [pc, #112]	; 300014e4 <find_and_build_level1_page_table+0xf8>
30001470:	e5933000 	ldr	r3, [r3]
30001474:	e0823003 	add	r3, r2, r3
30001478:	e50b300c 	str	r3, [fp, #-12]
3000147c:	e51b3010 	ldr	r3, [fp, #-16]
30001480:	e3a02000 	mov	r2, #0
30001484:	e5832000 	str	r2, [r3]
30001488:	e51b2010 	ldr	r2, [fp, #-16]
3000148c:	e51b300c 	ldr	r3, [fp, #-12]
30001490:	e3c33fff 	bic	r3, r3, #1020	; 0x3fc
30001494:	e3c33003 	bic	r3, r3, #3
30001498:	e51b101c 	ldr	r1, [fp, #-28]
3000149c:	e1a01281 	lsl	r1, r1, #5
300014a0:	e1833001 	orr	r3, r3, r1
300014a4:	e3833011 	orr	r3, r3, #17
300014a8:	e5823000 	str	r3, [r2]
300014ac:	ea000006 	b	300014cc <find_and_build_level1_page_table+0xe0>
300014b0:	e51b3010 	ldr	r3, [fp, #-16]
300014b4:	e5933000 	ldr	r3, [r3]
300014b8:	e50b300c 	str	r3, [fp, #-12]
300014bc:	e51b300c 	ldr	r3, [fp, #-12]
300014c0:	e3c33fff 	bic	r3, r3, #1020	; 0x3fc
300014c4:	e3c33003 	bic	r3, r3, #3
300014c8:	e50b300c 	str	r3, [fp, #-12]
300014cc:	e51b300c 	ldr	r3, [fp, #-12]
300014d0:	e1a00003 	mov	r0, r3
300014d4:	e28bd000 	add	sp, fp, #0
300014d8:	e8bd0800 	pop	{fp}
300014dc:	e12fff1e 	bx	lr
300014e0:	30001a24 	.word	0x30001a24
300014e4:	30001a28 	.word	0x30001a28

300014e8 <build_small_page_tbl>:
300014e8:	e92d4800 	push	{fp, lr}
300014ec:	e28db004 	add	fp, sp, #4
300014f0:	e24dd02c 	sub	sp, sp, #44	; 0x2c
300014f4:	e50b0024 	str	r0, [fp, #-36]	; 0x24
300014f8:	e50b1028 	str	r1, [fp, #-40]	; 0x28
300014fc:	e50b202c 	str	r2, [fp, #-44]	; 0x2c
30001500:	e50b3030 	str	r3, [fp, #-48]	; 0x30
30001504:	e51b3028 	ldr	r3, [fp, #-40]	; 0x28
30001508:	e1a03a03 	lsl	r3, r3, #20
3000150c:	e1a03a23 	lsr	r3, r3, #20
30001510:	e50b3014 	str	r3, [fp, #-20]
30001514:	e51b3028 	ldr	r3, [fp, #-40]	; 0x28
30001518:	e3c33eff 	bic	r3, r3, #4080	; 0xff0
3000151c:	e3c3300f 	bic	r3, r3, #15
30001520:	e50b3010 	str	r3, [fp, #-16]
30001524:	e51b3024 	ldr	r3, [fp, #-36]	; 0x24
30001528:	e2033aff 	and	r3, r3, #1044480	; 0xff000
3000152c:	e1a03523 	lsr	r3, r3, #10
30001530:	e50b3008 	str	r3, [fp, #-8]
30001534:	e51b0024 	ldr	r0, [fp, #-36]	; 0x24
30001538:	e51b102c 	ldr	r1, [fp, #-44]	; 0x2c
3000153c:	ebffffaa 	bl	300013ec <find_and_build_level1_page_table>
30001540:	e1a03000 	mov	r3, r0
30001544:	e50b3018 	str	r3, [fp, #-24]
30001548:	e51b2018 	ldr	r2, [fp, #-24]
3000154c:	e51b3008 	ldr	r3, [fp, #-8]
30001550:	e1823003 	orr	r3, r2, r3
30001554:	e50b300c 	str	r3, [fp, #-12]
30001558:	e51b300c 	ldr	r3, [fp, #-12]
3000155c:	e3a02000 	mov	r2, #0
30001560:	e5832000 	str	r2, [r3]
30001564:	e51b300c 	ldr	r3, [fp, #-12]
30001568:	e51b2030 	ldr	r2, [fp, #-48]	; 0x30
3000156c:	e1a02502 	lsl	r2, r2, #10
30001570:	e1a01002 	mov	r1, r2
30001574:	e51b2010 	ldr	r2, [fp, #-16]
30001578:	e1811002 	orr	r1, r1, r2
3000157c:	e51b2030 	ldr	r2, [fp, #-48]	; 0x30
30001580:	e1a02402 	lsl	r2, r2, #8
30001584:	e1811002 	orr	r1, r1, r2
30001588:	e51b2030 	ldr	r2, [fp, #-48]	; 0x30
3000158c:	e1a02302 	lsl	r2, r2, #6
30001590:	e1811002 	orr	r1, r1, r2
30001594:	e51b2030 	ldr	r2, [fp, #-48]	; 0x30
30001598:	e1a02202 	lsl	r2, r2, #4
3000159c:	e1811002 	orr	r1, r1, r2
300015a0:	e59b2004 	ldr	r2, [fp, #4]
300015a4:	e1a02102 	lsl	r2, r2, #2
300015a8:	e1812002 	orr	r2, r1, r2
300015ac:	e3822002 	orr	r2, r2, #2
300015b0:	e5832000 	str	r2, [r3]
300015b4:	e24bd004 	sub	sp, fp, #4
300015b8:	e8bd8800 	pop	{fp, pc}

300015bc <build_small_pages>:
300015bc:	e92d4800 	push	{fp, lr}
300015c0:	e28db004 	add	fp, sp, #4
300015c4:	e24dd018 	sub	sp, sp, #24
300015c8:	e50b000c 	str	r0, [fp, #-12]
300015cc:	e50b1010 	str	r1, [fp, #-16]
300015d0:	e50b2014 	str	r2, [fp, #-20]
300015d4:	e50b3018 	str	r3, [fp, #-24]
300015d8:	e51b3014 	ldr	r3, [fp, #-20]
300015dc:	e3530c01 	cmp	r3, #256	; 0x100
300015e0:	da000002 	ble	300015f0 <build_small_pages+0x34>
300015e4:	e59f0078 	ldr	r0, [pc, #120]	; 30001664 <build_small_pages+0xa8>
300015e8:	ebfffe83 	bl	30000ffc <printf>
300015ec:	ea00001a 	b	3000165c <build_small_pages+0xa0>
300015f0:	e3a03000 	mov	r3, #0
300015f4:	e50b3008 	str	r3, [fp, #-8]
300015f8:	ea000013 	b	3000164c <build_small_pages+0x90>
300015fc:	e51b3008 	ldr	r3, [fp, #-8]
30001600:	e1a03603 	lsl	r3, r3, #12
30001604:	e1a02003 	mov	r2, r3
30001608:	e51b300c 	ldr	r3, [fp, #-12]
3000160c:	e0822003 	add	r2, r2, r3
30001610:	e51b3008 	ldr	r3, [fp, #-8]
30001614:	e1a03603 	lsl	r3, r3, #12
30001618:	e1a01003 	mov	r1, r3
3000161c:	e51b3010 	ldr	r3, [fp, #-16]
30001620:	e0813003 	add	r3, r1, r3
30001624:	e59b1008 	ldr	r1, [fp, #8]
30001628:	e58d1000 	str	r1, [sp]
3000162c:	e1a00002 	mov	r0, r2
30001630:	e1a01003 	mov	r1, r3
30001634:	e51b2018 	ldr	r2, [fp, #-24]
30001638:	e59b3004 	ldr	r3, [fp, #4]
3000163c:	ebffffa9 	bl	300014e8 <build_small_page_tbl>
30001640:	e51b3008 	ldr	r3, [fp, #-8]
30001644:	e2833001 	add	r3, r3, #1
30001648:	e50b3008 	str	r3, [fp, #-8]
3000164c:	e51b2008 	ldr	r2, [fp, #-8]
30001650:	e51b3014 	ldr	r3, [fp, #-20]
30001654:	e1520003 	cmp	r2, r3
30001658:	baffffe7 	blt	300015fc <build_small_pages+0x40>
3000165c:	e24bd004 	sub	sp, fp, #4
30001660:	e8bd8800 	pop	{fp, pc}
30001664:	300019a8 	.word	0x300019a8

30001668 <init_mmu>:
30001668:	e92d4800 	push	{fp, lr}
3000166c:	e28db004 	add	fp, sp, #4
30001670:	e24dd00c 	sub	sp, sp, #12
30001674:	e3e00000 	mvn	r0, #0
30001678:	ebfffef6 	bl	30001258 <__set_domain_reg>
3000167c:	e3a0030e 	mov	r0, #939524096	; 0x38000000
30001680:	ebfffef6 	bl	30001260 <alloc_page_table>
30001684:	e59f30c8 	ldr	r3, [pc, #200]	; 30001754 <init_mmu+0xec>
30001688:	e5933000 	ldr	r3, [r3]
3000168c:	e3530000 	cmp	r3, #0
30001690:	0a000011 	beq	300016dc <init_mmu+0x74>
30001694:	e59f30b8 	ldr	r3, [pc, #184]	; 30001754 <init_mmu+0xec>
30001698:	e5933000 	ldr	r3, [r3]
3000169c:	e3c33dff 	bic	r3, r3, #16320	; 0x3fc0
300016a0:	e3c3303f 	bic	r3, r3, #63	; 0x3f
300016a4:	e1a00003 	mov	r0, r3
300016a8:	ebfffee8 	bl	30001250 <__set_ttb_reg>
300016ac:	e3a03003 	mov	r3, #3
300016b0:	e58d3000 	str	r3, [sp]
300016b4:	e3a03000 	mov	r3, #0
300016b8:	e58d3004 	str	r3, [sp, #4]
300016bc:	e3a0020e 	mov	r0, #-536870912	; 0xe0000000
300016c0:	e3a01205 	mov	r1, #1342177280	; 0x50000000
300016c4:	e3a02001 	mov	r2, #1
300016c8:	e3a03003 	mov	r3, #3
300016cc:	ebffffba 	bl	300015bc <build_small_pages>
300016d0:	e3a03000 	mov	r3, #0
300016d4:	e50b3008 	str	r3, [fp, #-8]
300016d8:	ea000015 	b	30001734 <init_mmu+0xcc>
300016dc:	e59f0074 	ldr	r0, [pc, #116]	; 30001758 <init_mmu+0xf0>
300016e0:	ebfffe5c 	bl	30001058 <printf_raw>
300016e4:	ea000018 	b	3000174c <init_mmu+0xe4>
300016e8:	e51b3008 	ldr	r3, [fp, #-8]
300016ec:	e2833c03 	add	r3, r3, #768	; 0x300
300016f0:	e1a03a03 	lsl	r3, r3, #20
300016f4:	e1a02003 	mov	r2, r3
300016f8:	e51b3008 	ldr	r3, [fp, #-8]
300016fc:	e2833c03 	add	r3, r3, #768	; 0x300
30001700:	e1a03a03 	lsl	r3, r3, #20
30001704:	e3a01003 	mov	r1, #3
30001708:	e58d1000 	str	r1, [sp]
3000170c:	e3a01000 	mov	r1, #0
30001710:	e58d1004 	str	r1, [sp, #4]
30001714:	e1a00002 	mov	r0, r2
30001718:	e1a01003 	mov	r1, r3
3000171c:	e3a02c01 	mov	r2, #256	; 0x100
30001720:	e3a03003 	mov	r3, #3
30001724:	ebffffa4 	bl	300015bc <build_small_pages>
30001728:	e51b3008 	ldr	r3, [fp, #-8]
3000172c:	e2833001 	add	r3, r3, #1
30001730:	e50b3008 	str	r3, [fp, #-8]
30001734:	e51b3008 	ldr	r3, [fp, #-8]
30001738:	e35300ff 	cmp	r3, #255	; 0xff
3000173c:	daffffe9 	ble	300016e8 <init_mmu+0x80>
30001740:	e59f0014 	ldr	r0, [pc, #20]	; 3000175c <init_mmu+0xf4>
30001744:	ebfffe43 	bl	30001058 <printf_raw>
30001748:	ebffff15 	bl	300013a4 <enable_mmu>
3000174c:	e24bd004 	sub	sp, fp, #4
30001750:	e8bd8800 	pop	{fp, pc}
30001754:	30001a24 	.word	0x30001a24
30001758:	300019c0 	.word	0x300019c0
3000175c:	300019e8 	.word	0x300019e8

30001760 <__aeabi_uidiv>:
30001760:	e2512001 	subs	r2, r1, #1
30001764:	012fff1e 	bxeq	lr
30001768:	3a000036 	bcc	30001848 <__aeabi_uidiv+0xe8>
3000176c:	e1500001 	cmp	r0, r1
30001770:	9a000022 	bls	30001800 <__aeabi_uidiv+0xa0>
30001774:	e1110002 	tst	r1, r2
30001778:	0a000023 	beq	3000180c <__aeabi_uidiv+0xac>
3000177c:	e311020e 	tst	r1, #-536870912	; 0xe0000000
30001780:	01a01181 	lsleq	r1, r1, #3
30001784:	03a03008 	moveq	r3, #8
30001788:	13a03001 	movne	r3, #1
3000178c:	e3510201 	cmp	r1, #268435456	; 0x10000000
30001790:	31510000 	cmpcc	r1, r0
30001794:	31a01201 	lslcc	r1, r1, #4
30001798:	31a03203 	lslcc	r3, r3, #4
3000179c:	3afffffa 	bcc	3000178c <__aeabi_uidiv+0x2c>
300017a0:	e3510102 	cmp	r1, #-2147483648	; 0x80000000
300017a4:	31510000 	cmpcc	r1, r0
300017a8:	31a01081 	lslcc	r1, r1, #1
300017ac:	31a03083 	lslcc	r3, r3, #1
300017b0:	3afffffa 	bcc	300017a0 <__aeabi_uidiv+0x40>
300017b4:	e3a02000 	mov	r2, #0
300017b8:	e1500001 	cmp	r0, r1
300017bc:	20400001 	subcs	r0, r0, r1
300017c0:	21822003 	orrcs	r2, r2, r3
300017c4:	e15000a1 	cmp	r0, r1, lsr #1
300017c8:	204000a1 	subcs	r0, r0, r1, lsr #1
300017cc:	218220a3 	orrcs	r2, r2, r3, lsr #1
300017d0:	e1500121 	cmp	r0, r1, lsr #2
300017d4:	20400121 	subcs	r0, r0, r1, lsr #2
300017d8:	21822123 	orrcs	r2, r2, r3, lsr #2
300017dc:	e15001a1 	cmp	r0, r1, lsr #3
300017e0:	204001a1 	subcs	r0, r0, r1, lsr #3
300017e4:	218221a3 	orrcs	r2, r2, r3, lsr #3
300017e8:	e3500000 	cmp	r0, #0
300017ec:	11b03223 	lsrsne	r3, r3, #4
300017f0:	11a01221 	lsrne	r1, r1, #4
300017f4:	1affffef 	bne	300017b8 <__aeabi_uidiv+0x58>
300017f8:	e1a00002 	mov	r0, r2
300017fc:	e12fff1e 	bx	lr
30001800:	03a00001 	moveq	r0, #1
30001804:	13a00000 	movne	r0, #0
30001808:	e12fff1e 	bx	lr
3000180c:	e3510801 	cmp	r1, #65536	; 0x10000
30001810:	21a01821 	lsrcs	r1, r1, #16
30001814:	23a02010 	movcs	r2, #16
30001818:	33a02000 	movcc	r2, #0
3000181c:	e3510c01 	cmp	r1, #256	; 0x100
30001820:	21a01421 	lsrcs	r1, r1, #8
30001824:	22822008 	addcs	r2, r2, #8
30001828:	e3510010 	cmp	r1, #16
3000182c:	21a01221 	lsrcs	r1, r1, #4
30001830:	22822004 	addcs	r2, r2, #4
30001834:	e3510004 	cmp	r1, #4
30001838:	82822003 	addhi	r2, r2, #3
3000183c:	908220a1 	addls	r2, r2, r1, lsr #1
30001840:	e1a00230 	lsr	r0, r0, r2
30001844:	e12fff1e 	bx	lr
30001848:	e52de008 	str	lr, [sp, #-8]!
3000184c:	eb00003a 	bl	3000193c <__aeabi_idiv0>
30001850:	e3a00000 	mov	r0, #0
30001854:	e49df008 	ldr	pc, [sp], #8

30001858 <__aeabi_uidivmod>:
30001858:	e92d4003 	push	{r0, r1, lr}
3000185c:	ebffffbf 	bl	30001760 <__aeabi_uidiv>
30001860:	e8bd4006 	pop	{r1, r2, lr}
30001864:	e0030092 	mul	r3, r2, r0
30001868:	e0411003 	sub	r1, r1, r3
3000186c:	e12fff1e 	bx	lr

30001870 <__umodsi3>:
30001870:	e2512001 	subs	r2, r1, #1
30001874:	3a00002c 	bcc	3000192c <__umodsi3+0xbc>
30001878:	11500001 	cmpne	r0, r1
3000187c:	03a00000 	moveq	r0, #0
30001880:	81110002 	tsthi	r1, r2
30001884:	00000002 	andeq	r0, r0, r2
30001888:	912fff1e 	bxls	lr
3000188c:	e3a02000 	mov	r2, #0
30001890:	e3510201 	cmp	r1, #268435456	; 0x10000000
30001894:	31510000 	cmpcc	r1, r0
30001898:	31a01201 	lslcc	r1, r1, #4
3000189c:	32822004 	addcc	r2, r2, #4
300018a0:	3afffffa 	bcc	30001890 <__umodsi3+0x20>
300018a4:	e3510102 	cmp	r1, #-2147483648	; 0x80000000
300018a8:	31510000 	cmpcc	r1, r0
300018ac:	31a01081 	lslcc	r1, r1, #1
300018b0:	32822001 	addcc	r2, r2, #1
300018b4:	3afffffa 	bcc	300018a4 <__umodsi3+0x34>
300018b8:	e2522003 	subs	r2, r2, #3
300018bc:	ba00000e 	blt	300018fc <__umodsi3+0x8c>
300018c0:	e1500001 	cmp	r0, r1
300018c4:	20400001 	subcs	r0, r0, r1
300018c8:	e15000a1 	cmp	r0, r1, lsr #1
300018cc:	204000a1 	subcs	r0, r0, r1, lsr #1
300018d0:	e1500121 	cmp	r0, r1, lsr #2
300018d4:	20400121 	subcs	r0, r0, r1, lsr #2
300018d8:	e15001a1 	cmp	r0, r1, lsr #3
300018dc:	204001a1 	subcs	r0, r0, r1, lsr #3
300018e0:	e3500001 	cmp	r0, #1
300018e4:	e1a01221 	lsr	r1, r1, #4
300018e8:	a2522004 	subsge	r2, r2, #4
300018ec:	aafffff3 	bge	300018c0 <__umodsi3+0x50>
300018f0:	e3120003 	tst	r2, #3
300018f4:	13300000 	teqne	r0, #0
300018f8:	0a00000a 	beq	30001928 <__umodsi3+0xb8>
300018fc:	e3720002 	cmn	r2, #2
30001900:	ba000006 	blt	30001920 <__umodsi3+0xb0>
30001904:	0a000002 	beq	30001914 <__umodsi3+0xa4>
30001908:	e1500001 	cmp	r0, r1
3000190c:	20400001 	subcs	r0, r0, r1
30001910:	e1a010a1 	lsr	r1, r1, #1
30001914:	e1500001 	cmp	r0, r1
30001918:	20400001 	subcs	r0, r0, r1
3000191c:	e1a010a1 	lsr	r1, r1, #1
30001920:	e1500001 	cmp	r0, r1
30001924:	20400001 	subcs	r0, r0, r1
30001928:	e12fff1e 	bx	lr
3000192c:	e52de008 	str	lr, [sp, #-8]!
30001930:	eb000001 	bl	3000193c <__aeabi_idiv0>
30001934:	e3a00000 	mov	r0, #0
30001938:	e49df008 	ldr	pc, [sp], #8

3000193c <__aeabi_idiv0>:
3000193c:	e12fff1e 	bx	lr
