
zygote:     file format elf32-littlearm


Disassembly of section .text:

40300000 <_start>:
40300000:	ea000014 	b	40300058 <reset>
40300004:	e59ff014 	ldr	pc, [pc, #20]	; 40300020 <_hang>
40300008:	e59ff010 	ldr	pc, [pc, #16]	; 40300020 <_hang>
4030000c:	e59ff00c 	ldr	pc, [pc, #12]	; 40300020 <_hang>
40300010:	e59ff008 	ldr	pc, [pc, #8]	; 40300020 <_hang>
40300014:	e59ff004 	ldr	pc, [pc, #4]	; 40300020 <_hang>
40300018:	e59ff000 	ldr	pc, [pc]	; 40300020 <_hang>
4030001c:	e51ff004 	ldr	pc, [pc, #-4]	; 40300020 <_hang>

40300020 <_hang>:
40300020:	40300040 	eorsmi	r0, r0, r0, asr #32
40300024:	12345678 	eorsne	r5, r4, #120, 12	; 0x7800000
40300028:	12345678 	eorsne	r5, r4, #120, 12	; 0x7800000
4030002c:	12345678 	eorsne	r5, r4, #120, 12	; 0x7800000
40300030:	12345678 	eorsne	r5, r4, #120, 12	; 0x7800000
40300034:	12345678 	eorsne	r5, r4, #120, 12	; 0x7800000
40300038:	12345678 	eorsne	r5, r4, #120, 12	; 0x7800000
4030003c:	12345678 	eorsne	r5, r4, #120, 12	; 0x7800000

40300040 <do_hang>:
40300040:	eafffffe 	b	40300040 <do_hang>

40300044 <_end_vect>:
40300044:	dddddddd 	ldclle	13, cr13, [sp, #884]	; 0x374
40300048:	dddddddd 	ldclle	13, cr13, [sp, #884]	; 0x374
4030004c:	dddddddd 	ldclle	13, cr13, [sp, #884]	; 0x374

40300050 <_bss_start>:
40300050:	403039e4 	eorsmi	r3, r0, r4, ror #19

40300054 <_bss_end>:
40300054:	403039e4 	eorsmi	r3, r0, r4, ror #19

40300058 <reset>:
40300058:	e10f0000 	mrs	r0, CPSR
4030005c:	e3c0001f 	bic	r0, r0, #31
40300060:	e38000d3 	orr	r0, r0, #211	; 0xd3
40300064:	e129f000 	msr	CPSR_fc, r0
40300068:	eb000000 	bl	40300070 <cpu_init_crit>

4030006c <hang>:
4030006c:	eafffffe 	b	4030006c <hang>

40300070 <cpu_init_crit>:
40300070:	e3a00000 	mov	r0, #0
40300074:	ee080f17 	mcr	15, 0, r0, cr8, cr7, {0}
40300078:	ee070f15 	mcr	15, 0, r0, cr7, cr5, {0}
4030007c:	ee070fd5 	mcr	15, 0, r0, cr7, cr5, {6}
40300080:	ee110f10 	mrc	15, 0, r0, cr1, cr0, {0}
40300084:	e3c00a02 	bic	r0, r0, #8192	; 0x2000
40300088:	e3c00007 	bic	r0, r0, #7
4030008c:	e3800002 	orr	r0, r0, #2
40300090:	e3800b02 	orr	r0, r0, #2048	; 0x800
40300094:	e3800a01 	orr	r0, r0, #4096	; 0x1000
40300098:	ee010f10 	mcr	15, 0, r0, cr1, cr0, {0}
4030009c:	e51f0054 	ldr	r0, [pc, #-84]	; 40300050 <_bss_start>
403000a0:	e51f1054 	ldr	r1, [pc, #-84]	; 40300054 <_bss_end>
403000a4:	e1500001 	cmp	r0, r1
403000a8:	0a000003 	beq	403000bc <after_clr_bss>
403000ac:	e3a02000 	mov	r2, #0

403000b0 <clrbss_1>:
403000b0:	e4802004 	str	r2, [r0], #4
403000b4:	e1500001 	cmp	r0, r1
403000b8:	1afffffc 	bne	403000b0 <clrbss_1>

403000bc <after_clr_bss>:
403000bc:	e92d5000 	push	{ip, lr}
403000c0:	e59fd008 	ldr	sp, [pc, #8]	; 403000d0 <after_clr_bss+0x14>
403000c4:	eb00006d 	bl	40300280 <s_init>
403000c8:	e8bd5000 	pop	{ip, lr}
403000cc:	e1a0f00e 	mov	pc, lr
403000d0:	4030dff0 	ldrshtmi	sp, [r0], -r0
403000d4:	e320f000 	nop	{0}
403000d8:	e320f000 	nop	{0}
403000dc:	e320f000 	nop	{0}

403000e0 <omap_vc_bypass_send_value>:
403000e0:	e200307f 	and	r3, r0, #127	; 0x7f
403000e4:	e1831401 	orr	r1, r3, r1, lsl #8
403000e8:	e1812802 	orr	r2, r1, r2, lsl #16
403000ec:	e3a0ca07 	mov	ip, #28672	; 0x7000
403000f0:	e344ca30 	movt	ip, #18992	; 0x4a30
403000f4:	e3820401 	orr	r0, r2, #16777216	; 0x1000000
403000f8:	e58c2ba0 	str	r2, [ip, #2976]	; 0xba0
403000fc:	e30f3fff 	movw	r3, #65535	; 0xffff
40300100:	e1a0100c 	mov	r1, ip
40300104:	e3a02064 	mov	r2, #100	; 0x64
40300108:	e58c0ba0 	str	r0, [ip, #2976]	; 0xba0
4030010c:	ea000012 	b	4030015c <omap_vc_bypass_send_value+0x7c>
40300110:	e2500001 	subs	r0, r0, #1
40300114:	1afffffd 	bne	40300110 <omap_vc_bypass_send_value+0x30>
40300118:	e2433001 	sub	r3, r3, #1
4030011c:	e5910ba0 	ldr	r0, [r1, #2976]	; 0xba0
40300120:	e1a0c003 	mov	ip, r3
40300124:	e3100401 	tst	r0, #16777216	; 0x1000000
40300128:	e1a00002 	mov	r0, r2
4030012c:	0a00000e 	beq	4030016c <omap_vc_bypass_send_value+0x8c>
40300130:	e2500001 	subs	r0, r0, #1
40300134:	1afffffd 	bne	40300130 <omap_vc_bypass_send_value+0x50>
40300138:	e5910ba0 	ldr	r0, [r1, #2976]	; 0xba0
4030013c:	e2433001 	sub	r3, r3, #1
40300140:	e3100401 	tst	r0, #16777216	; 0x1000000
40300144:	e1a00002 	mov	r0, r2
40300148:	0a000007 	beq	4030016c <omap_vc_bypass_send_value+0x8c>
4030014c:	e2500001 	subs	r0, r0, #1
40300150:	1afffffd 	bne	4030014c <omap_vc_bypass_send_value+0x6c>
40300154:	e25c3002 	subs	r3, ip, #2
40300158:	0a000003 	beq	4030016c <omap_vc_bypass_send_value+0x8c>
4030015c:	e591cba0 	ldr	ip, [r1, #2976]	; 0xba0
40300160:	e31c0401 	tst	ip, #16777216	; 0x1000000
40300164:	e1a00002 	mov	r0, r2
40300168:	1affffe8 	bne	40300110 <omap_vc_bypass_send_value+0x30>
4030016c:	e3a02a06 	mov	r2, #24576	; 0x6000
40300170:	e3442a30 	movt	r2, #18992	; 0x4a30
40300174:	e5921010 	ldr	r1, [r2, #16]
40300178:	e3530000 	cmp	r3, #0
4030017c:	e5821010 	str	r1, [r2, #16]
40300180:	03e00000 	mvneq	r0, #0
40300184:	13a00000 	movne	r0, #0
40300188:	e12fff1e 	bx	lr

4030018c <cortex_a9_rev>:
4030018c:	ee100f10 	mrc	15, 0, r0, cr0, cr0, {0}
40300190:	e12fff1e 	bx	lr

40300194 <omap_revision>:
40300194:	e30c3092 	movw	r3, #49298	; 0xc092
40300198:	e344311f 	movt	r3, #16671	; 0x411f
4030019c:	ee102f10 	mrc	15, 0, r2, cr0, cr0, {0}
403001a0:	e1520003 	cmp	r2, r3
403001a4:	0a00001d 	beq	40300220 <omap_revision+0x8c>
403001a8:	9a000016 	bls	40300208 <omap_revision+0x74>
403001ac:	e30c1093 	movw	r1, #49299	; 0xc093
403001b0:	e344111f 	movt	r1, #16671	; 0x411f
403001b4:	e1520001 	cmp	r2, r1
403001b8:	03a00006 	moveq	r0, #6
403001bc:	012fff1e 	bxeq	lr
403001c0:	e30cc09a 	movw	ip, #49306	; 0xc09a
403001c4:	e344c12f 	movt	ip, #16687	; 0x412f
403001c8:	e152000c 	cmp	r2, ip
403001cc:	1a000011 	bne	40300218 <omap_revision+0x84>
403001d0:	e3a01a02 	mov	r1, #8192	; 0x2000
403001d4:	e3441a00 	movt	r1, #18944	; 0x4a00
403001d8:	e5911204 	ldr	r1, [r1, #516]	; 0x204
403001dc:	e30ec02f 	movw	ip, #57391	; 0xe02f
403001e0:	e3c1220f 	bic	r2, r1, #-268435456	; 0xf0000000
403001e4:	e340cb94 	movt	ip, #2964	; 0xb94
403001e8:	e152000c 	cmp	r2, ip
403001ec:	0a00001a 	beq	4030025c <omap_revision+0xc8>
403001f0:	e305002f 	movw	r0, #20527	; 0x502f
403001f4:	e3400b97 	movt	r0, #2967	; 0xb97
403001f8:	e1520000 	cmp	r2, r0
403001fc:	03a00020 	moveq	r0, #32
40300200:	13a00000 	movne	r0, #0
40300204:	e12fff1e 	bx	lr
40300208:	e30c0091 	movw	r0, #49297	; 0xc091
4030020c:	e344010f 	movt	r0, #16655	; 0x410f
40300210:	e1520000 	cmp	r2, r0
40300214:	0a00000e 	beq	40300254 <omap_revision+0xc0>
40300218:	e3a00000 	mov	r0, #0
4030021c:	e12fff1e 	bx	lr
40300220:	e3a02a02 	mov	r2, #8192	; 0x2000
40300224:	e3442a00 	movt	r2, #18944	; 0x4a00
40300228:	e5922204 	ldr	r2, [r2, #516]	; 0x204
4030022c:	e30c302f 	movw	r3, #49199	; 0xc02f
40300230:	e3433b95 	movt	r3, #15253	; 0x3b95
40300234:	e1520003 	cmp	r2, r3
40300238:	0a00000e 	beq	40300278 <omap_revision+0xe4>
4030023c:	e30c002f 	movw	r0, #49199	; 0xc02f
40300240:	e3440b95 	movt	r0, #19349	; 0x4b95
40300244:	e1520000 	cmp	r2, r0
40300248:	03a00004 	moveq	r0, #4
4030024c:	13a00002 	movne	r0, #2
40300250:	e12fff1e 	bx	lr
40300254:	e3a00001 	mov	r0, #1
40300258:	e12fff1e 	bx	lr
4030025c:	e1a01e21 	lsr	r1, r1, #28
40300260:	e3510002 	cmp	r1, #2
40300264:	8affffeb 	bhi	40300218 <omap_revision+0x84>
40300268:	e3023b14 	movw	r3, #11028	; 0x2b14
4030026c:	e3443030 	movt	r3, #16432	; 0x4030
40300270:	e7930101 	ldr	r0, [r3, r1, lsl #2]
40300274:	e12fff1e 	bx	lr
40300278:	e3a00003 	mov	r0, #3
4030027c:	e12fff1e 	bx	lr

40300280 <s_init>:
40300280:	e3a03313 	mov	r3, #1275068416	; 0x4c000000
40300284:	e92d4010 	push	{r4, lr}
40300288:	e593e038 	ldr	lr, [r3, #56]	; 0x38
4030028c:	e3ce4e7f 	bic	r4, lr, #2032	; 0x7f0
40300290:	e384cc02 	orr	ip, r4, #512	; 0x200
40300294:	e3a0e44d 	mov	lr, #1291845632	; 0x4d000000
40300298:	e583c038 	str	ip, [r3, #56]	; 0x38
4030029c:	e59e2038 	ldr	r2, [lr, #56]	; 0x38
403002a0:	e3c21e7f 	bic	r1, r2, #2032	; 0x7f0
403002a4:	e3810c02 	orr	r0, r1, #512	; 0x200
403002a8:	e58e0038 	str	r0, [lr, #56]	; 0x38
403002ac:	e5932038 	ldr	r2, [r3, #56]	; 0x38
403002b0:	e59e3038 	ldr	r3, [lr, #56]	; 0x38
403002b4:	eb0008ae 	bl	40302574 <set_muxconf_regs>
403002b8:	eb00085c 	bl	40302430 <init_gpio_led>
403002bc:	eb000810 	bl	40302304 <setup_console>
403002c0:	e3a00001 	mov	r0, #1
403002c4:	eb00089a 	bl	40302534 <led_off>
403002c8:	e3a00002 	mov	r0, #2
403002cc:	eb000898 	bl	40302534 <led_off>
403002d0:	ebffffaf 	bl	40300194 <omap_revision>
403002d4:	e3a0ca07 	mov	ip, #28672	; 0x7000
403002d8:	e344ca30 	movt	ip, #18992	; 0x4a30
403002dc:	e3a04000 	mov	r4, #0
403002e0:	e58c4ba8 	str	r4, [ip, #2984]	; 0xba8
403002e4:	e3444a31 	movt	r4, #18993	; 0x4a31
403002e8:	e3a01055 	mov	r1, #85	; 0x55
403002ec:	e3062026 	movw	r2, #24614	; 0x6026
403002f0:	e3a00012 	mov	r0, #18
403002f4:	e58c2bac 	str	r2, [ip, #2988]	; 0xbac
403002f8:	e3a02022 	mov	r2, #34	; 0x22
403002fc:	ebffff77 	bl	403000e0 <omap_vc_bypass_send_value>
40300300:	e5941134 	ldr	r1, [r4, #308]	; 0x134
40300304:	e3c10080 	bic	r0, r1, #128	; 0x80
40300308:	e3a01001 	mov	r1, #1
4030030c:	e5840134 	str	r0, [r4, #308]	; 0x134
40300310:	e3a02047 	mov	r2, #71	; 0x47
40300314:	e3a00060 	mov	r0, #96	; 0x60
40300318:	ebffff70 	bl	403000e0 <omap_vc_bypass_send_value>
4030031c:	e3a03080 	mov	r3, #128	; 0x80
40300320:	e3a0105b 	mov	r1, #91	; 0x5b
40300324:	e3a02014 	mov	r2, #20
40300328:	e5843194 	str	r3, [r4, #404]	; 0x194
4030032c:	e3a00012 	mov	r0, #18
40300330:	ebffff6a 	bl	403000e0 <omap_vc_bypass_send_value>
40300334:	eb0006f5 	bl	40301f10 <ddr_init>
40300338:	e8bd4010 	pop	{r4, lr}
4030033c:	ea000128 	b	403007e4 <prcm_init>

40300340 <get_device_type>:
40300340:	e3a03a02 	mov	r3, #8192	; 0x2000
40300344:	e3443a00 	movt	r3, #18944	; 0x4a00
40300348:	e59302c4 	ldr	r0, [r3, #708]	; 0x2c4
4030034c:	e7e20450 	ubfx	r0, r0, #8, #3
40300350:	e12fff1e 	bx	lr

40300354 <cpu_init>:
40300354:	e92d4010 	push	{r4, lr}
40300358:	e24dd004 	sub	sp, sp, #4
4030035c:	ebffff8c 	bl	40300194 <omap_revision>
40300360:	e3500001 	cmp	r0, #1
40300364:	e1a04000 	mov	r4, r0
40300368:	9a000031 	bls	40300434 <cpu_init+0xe0>
4030036c:	e3a03a02 	mov	r3, #8192	; 0x2000
40300370:	e3443a00 	movt	r3, #18944	; 0x4a00
40300374:	e59312c4 	ldr	r1, [r3, #708]	; 0x2c4
40300378:	e7e22451 	ubfx	r2, r1, #8, #3
4030037c:	e3520003 	cmp	r2, #3
40300380:	0a000029 	beq	4030042c <cpu_init+0xd8>
40300384:	e5932204 	ldr	r2, [r3, #516]	; 0x204
40300388:	e1a0e622 	lsr	lr, r2, #12
4030038c:	e3a03005 	mov	r3, #5
40300390:	e20e00f0 	and	r0, lr, #240	; 0xf0
40300394:	e58d3000 	str	r3, [sp]
40300398:	e3500050 	cmp	r0, #80	; 0x50
4030039c:	e3a01000 	mov	r1, #0
403003a0:	e3a02007 	mov	r2, #7
403003a4:	e3a03001 	mov	r3, #1
403003a8:	13a00bc1 	movne	r0, #197632	; 0x30400
403003ac:	03a00ba1 	moveq	r0, #164864	; 0x28400
403003b0:	e590c000 	ldr	ip, [r0]
403003b4:	e3a00023 	mov	r0, #35	; 0x23
403003b8:	e12fff3c 	blx	ip
403003bc:	e3a0ca02 	mov	ip, #8192	; 0x2000
403003c0:	e344c824 	movt	ip, #18468	; 0x4824
403003c4:	e59c1104 	ldr	r1, [ip, #260]	; 0x104
403003c8:	e3000109 	movw	r0, #265	; 0x109
403003cc:	e3811201 	orr	r1, r1, #268435456	; 0x10000000
403003d0:	eb000779 	bl	403021bc <omap_smc_rom>
403003d4:	e354001f 	cmp	r4, #31
403003d8:	9a000015 	bls	40300434 <cpu_init+0xe0>
403003dc:	e3a02a02 	mov	r2, #8192	; 0x2000
403003e0:	e3442a00 	movt	r2, #18944	; 0x4a00
403003e4:	e592e320 	ldr	lr, [r2, #800]	; 0x320
403003e8:	e3de2e3e 	bics	r2, lr, #992	; 0x3e0
403003ec:	1a000016 	bne	4030044c <cpu_init+0xf8>
403003f0:	e3a03a02 	mov	r3, #8192	; 0x2000
403003f4:	e3443a00 	movt	r3, #18944	; 0x4a00
403003f8:	e300e40f 	movw	lr, #1039	; 0x40f
403003fc:	e340e401 	movt	lr, #1025	; 0x401
40300400:	e583e320 	str	lr, [r3, #800]	; 0x320
40300404:	e583e324 	str	lr, [r3, #804]	; 0x324
40300408:	e354001f 	cmp	r4, #31
4030040c:	e583e328 	str	lr, [r3, #808]	; 0x328
40300410:	8a000003 	bhi	40300424 <cpu_init+0xd0>
40300414:	e3a01000 	mov	r1, #0
40300418:	e3441a10 	movt	r1, #18960	; 0x4a10
4030041c:	e3a02d07 	mov	r2, #448	; 0x1c0
40300420:	e5812700 	str	r2, [r1, #1792]	; 0x700
40300424:	e28dd004 	add	sp, sp, #4
40300428:	e8bd8010 	pop	{r4, pc}
4030042c:	e3500003 	cmp	r0, #3
40300430:	8a00000e 	bhi	40300470 <cpu_init+0x11c>
40300434:	e3a03000 	mov	r3, #0
40300438:	e354000f 	cmp	r4, #15
4030043c:	e3443a10 	movt	r3, #18960	; 0x4a10
40300440:	e3a00921 	mov	r0, #540672	; 0x84000
40300444:	e5830704 	str	r0, [r3, #1796]	; 0x704
40300448:	8affffe3 	bhi	403003dc <cpu_init+0x88>
4030044c:	e2441004 	sub	r1, r4, #4
40300450:	e351000b 	cmp	r1, #11
40300454:	8afffff2 	bhi	40300424 <cpu_init+0xd0>
40300458:	e3a00a02 	mov	r0, #8192	; 0x2000
4030045c:	e3440a00 	movt	r0, #18944	; 0x4a00
40300460:	e590c320 	ldr	ip, [r0, #800]	; 0x320
40300464:	e35c0000 	cmp	ip, #0
40300468:	0affffe0 	beq	403003f0 <cpu_init+0x9c>
4030046c:	eaffffec 	b	40300424 <cpu_init+0xd0>
40300470:	e3000113 	movw	r0, #275	; 0x113
40300474:	e3a01005 	mov	r1, #5
40300478:	eb00074f 	bl	403021bc <omap_smc_rom>
4030047c:	eaffffce 	b	403003bc <cpu_init+0x68>

40300480 <configure_core_dpll_no_lock>:
40300480:	e92d4010 	push	{r4, lr}
40300484:	e3a0ca06 	mov	ip, #24576	; 0x6000
40300488:	e344ca30 	movt	ip, #18992	; 0x4a30
4030048c:	e3a0e007 	mov	lr, #7
40300490:	e3a01000 	mov	r1, #0
40300494:	e58ce110 	str	lr, [ip, #272]	; 0x110
40300498:	e3a02020 	mov	r2, #32
4030049c:	e3a03e11 	mov	r3, #272	; 0x110
403004a0:	e3a00c41 	mov	r0, #16640	; 0x4100
403004a4:	e3440a00 	movt	r0, #18944	; 0x4a00
403004a8:	eb00074b 	bl	403021dc <sr32>
403004ac:	e3a01000 	mov	r1, #0
403004b0:	e3a02003 	mov	r2, #3
403004b4:	e3a03004 	mov	r3, #4
403004b8:	e3040120 	movw	r0, #16672	; 0x4120
403004bc:	e3440a00 	movt	r0, #18944	; 0x4a00
403004c0:	eb000745 	bl	403021dc <sr32>
403004c4:	e3a01000 	mov	r1, #0
403004c8:	e3a00001 	mov	r0, #1
403004cc:	e3042124 	movw	r2, #16676	; 0x4124
403004d0:	e3043240 	movw	r3, #16960	; 0x4240
403004d4:	e3442a00 	movt	r2, #18944	; 0x4a00
403004d8:	e340300f 	movt	r3, #15
403004dc:	eb000748 	bl	40302204 <wait_on_value>
403004e0:	ebffff2b 	bl	40300194 <omap_revision>
403004e4:	e3500001 	cmp	r0, #1
403004e8:	059f419c 	ldreq	r4, [pc, #412]	; 4030068c <configure_core_dpll_no_lock+0x20c>
403004ec:	0a000007 	beq	40300510 <configure_core_dpll_no_lock+0x90>
403004f0:	ebffff27 	bl	40300194 <omap_revision>
403004f4:	e3500002 	cmp	r0, #2
403004f8:	059f4190 	ldreq	r4, [pc, #400]	; 40300690 <configure_core_dpll_no_lock+0x210>
403004fc:	0a000003 	beq	40300510 <configure_core_dpll_no_lock+0x90>
40300500:	ebffff23 	bl	40300194 <omap_revision>
40300504:	e59f4188 	ldr	r4, [pc, #392]	; 40300694 <configure_core_dpll_no_lock+0x214>
40300508:	e3500002 	cmp	r0, #2
4030050c:	93a04000 	movls	r4, #0
40300510:	e3a01000 	mov	r1, #0
40300514:	e3a02003 	mov	r2, #3
40300518:	e1a03001 	mov	r3, r1
4030051c:	e3040128 	movw	r0, #16680	; 0x4128
40300520:	e3440a00 	movt	r0, #18944	; 0x4a00
40300524:	eb00072c 	bl	403021dc <sr32>
40300528:	e5943000 	ldr	r3, [r4]
4030052c:	e3a01008 	mov	r1, #8
40300530:	e3a0200b 	mov	r2, #11
40300534:	e304012c 	movw	r0, #16684	; 0x412c
40300538:	e3440a00 	movt	r0, #18944	; 0x4a00
4030053c:	eb000726 	bl	403021dc <sr32>
40300540:	e5943004 	ldr	r3, [r4, #4]
40300544:	e3a01000 	mov	r1, #0
40300548:	e3a02006 	mov	r2, #6
4030054c:	e304012c 	movw	r0, #16684	; 0x412c
40300550:	e3440a00 	movt	r0, #18944	; 0x4a00
40300554:	eb000720 	bl	403021dc <sr32>
40300558:	e5943008 	ldr	r3, [r4, #8]
4030055c:	e3a01000 	mov	r1, #0
40300560:	e3a02005 	mov	r2, #5
40300564:	e3040130 	movw	r0, #16688	; 0x4130
40300568:	e3440a00 	movt	r0, #18944	; 0x4a00
4030056c:	eb00071a 	bl	403021dc <sr32>
40300570:	e594300c 	ldr	r3, [r4, #12]
40300574:	e3a01000 	mov	r1, #0
40300578:	e3a02005 	mov	r2, #5
4030057c:	e3040134 	movw	r0, #16692	; 0x4134
40300580:	e3440a00 	movt	r0, #18944	; 0x4a00
40300584:	eb000714 	bl	403021dc <sr32>
40300588:	e5943010 	ldr	r3, [r4, #16]
4030058c:	e3a01000 	mov	r1, #0
40300590:	e3a02005 	mov	r2, #5
40300594:	e3040138 	movw	r0, #16696	; 0x4138
40300598:	e3440a00 	movt	r0, #18944	; 0x4a00
4030059c:	eb00070e 	bl	403021dc <sr32>
403005a0:	e5943014 	ldr	r3, [r4, #20]
403005a4:	e3a01000 	mov	r1, #0
403005a8:	e3a02005 	mov	r2, #5
403005ac:	e304013c 	movw	r0, #16700	; 0x413c
403005b0:	e3440a00 	movt	r0, #18944	; 0x4a00
403005b4:	eb000708 	bl	403021dc <sr32>
403005b8:	e5943018 	ldr	r3, [r4, #24]
403005bc:	e3a01000 	mov	r1, #0
403005c0:	e3a02005 	mov	r2, #5
403005c4:	e3040140 	movw	r0, #16704	; 0x4140
403005c8:	e3440a00 	movt	r0, #18944	; 0x4a00
403005cc:	eb000702 	bl	403021dc <sr32>
403005d0:	e594301c 	ldr	r3, [r4, #28]
403005d4:	e3a01000 	mov	r1, #0
403005d8:	e3a02005 	mov	r2, #5
403005dc:	e3040144 	movw	r0, #16708	; 0x4144
403005e0:	e3440a00 	movt	r0, #18944	; 0x4a00
403005e4:	eb0006fc 	bl	403021dc <sr32>
403005e8:	ebfffee9 	bl	40300194 <omap_revision>
403005ec:	e3500001 	cmp	r0, #1
403005f0:	e1a04000 	mov	r4, r0
403005f4:	18bd8010 	popne	{r4, pc}
403005f8:	e1a02000 	mov	r2, r0
403005fc:	e1a03000 	mov	r3, r0
40300600:	e3a01008 	mov	r1, #8
40300604:	e3040130 	movw	r0, #16688	; 0x4130
40300608:	e3440a00 	movt	r0, #18944	; 0x4a00
4030060c:	eb0006f2 	bl	403021dc <sr32>
40300610:	e1a02004 	mov	r2, r4
40300614:	e1a03004 	mov	r3, r4
40300618:	e3a01008 	mov	r1, #8
4030061c:	e3040134 	movw	r0, #16692	; 0x4134
40300620:	e3440a00 	movt	r0, #18944	; 0x4a00
40300624:	eb0006ec 	bl	403021dc <sr32>
40300628:	e1a02004 	mov	r2, r4
4030062c:	e1a03004 	mov	r3, r4
40300630:	e3a01008 	mov	r1, #8
40300634:	e3040138 	movw	r0, #16696	; 0x4138
40300638:	e3440a00 	movt	r0, #18944	; 0x4a00
4030063c:	eb0006e6 	bl	403021dc <sr32>
40300640:	e1a02004 	mov	r2, r4
40300644:	e1a03004 	mov	r3, r4
40300648:	e3a01008 	mov	r1, #8
4030064c:	e304013c 	movw	r0, #16700	; 0x413c
40300650:	e3440a00 	movt	r0, #18944	; 0x4a00
40300654:	eb0006e0 	bl	403021dc <sr32>
40300658:	e1a02004 	mov	r2, r4
4030065c:	e1a03004 	mov	r3, r4
40300660:	e3a01008 	mov	r1, #8
40300664:	e3040140 	movw	r0, #16704	; 0x4140
40300668:	e3440a00 	movt	r0, #18944	; 0x4a00
4030066c:	eb0006da 	bl	403021dc <sr32>
40300670:	e1a02004 	mov	r2, r4
40300674:	e3040144 	movw	r0, #16708	; 0x4144
40300678:	e3a01008 	mov	r1, #8
4030067c:	e3440a00 	movt	r0, #18944	; 0x4a00
40300680:	e1a03004 	mov	r3, r4
40300684:	e8bd4010 	pop	{r4, lr}
40300688:	ea0006d3 	b	403021dc <sr32>
4030068c:	40302cf4 	ldrshtmi	r2, [r0], -r4
40300690:	40302df0 	ldrshtmi	r2, [r0], -r0
40300694:	40302eec 	eorsmi	r2, r0, ip, ror #29

40300698 <lock_core_dpll>:
40300698:	e52de004 	push	{lr}		; (str lr, [sp, #-4]!)
4030069c:	e3a01000 	mov	r1, #0
403006a0:	e3a02003 	mov	r2, #3
403006a4:	e3a03007 	mov	r3, #7
403006a8:	e3040120 	movw	r0, #16672	; 0x4120
403006ac:	e3440a00 	movt	r0, #18944	; 0x4a00
403006b0:	eb0006c9 	bl	403021dc <sr32>
403006b4:	e3a00001 	mov	r0, #1
403006b8:	e3042124 	movw	r2, #16676	; 0x4124
403006bc:	e3043240 	movw	r3, #16960	; 0x4240
403006c0:	e1a01000 	mov	r1, r0
403006c4:	e3442a00 	movt	r2, #18944	; 0x4a00
403006c8:	e340300f 	movt	r3, #15
403006cc:	e49de004 	pop	{lr}		; (ldr lr, [sp], #4)
403006d0:	ea0006cb 	b	40302204 <wait_on_value>

403006d4 <lock_core_dpll_shadow>:
403006d4:	e3a03902 	mov	r3, #32768	; 0x8000
403006d8:	e3443a00 	movt	r3, #18944	; 0x4a00
403006dc:	e92d4010 	push	{r4, lr}
403006e0:	e5930b00 	ldr	r0, [r3, #2816]	; 0xb00
403006e4:	e3c04003 	bic	r4, r0, #3
403006e8:	e3844002 	orr	r4, r4, #2
403006ec:	e1a02003 	mov	r2, r3
403006f0:	e5834b00 	str	r4, [r3, #2816]	; 0xb00
403006f4:	e5921b30 	ldr	r1, [r2, #2864]	; 0xb30
403006f8:	e3110803 	tst	r1, #196608	; 0x30000
403006fc:	1afffffc 	bne	403006f4 <lock_core_dpll_shadow+0x20>
40300700:	e3a02902 	mov	r2, #32768	; 0x8000
40300704:	e3442a00 	movt	r2, #18944	; 0x4a00
40300708:	e592cb38 	ldr	ip, [r2, #2872]	; 0xb38
4030070c:	e31c0803 	tst	ip, #196608	; 0x30000
40300710:	1afffffc 	bne	40300708 <lock_core_dpll_shadow+0x34>
40300714:	e3a0e901 	mov	lr, #16384	; 0x4000
40300718:	e344ea00 	movt	lr, #18944	; 0x4a00
4030071c:	e3a0200a 	mov	r2, #10
40300720:	e58e2120 	str	r2, [lr, #288]	; 0x120
40300724:	ebfffe9a 	bl	40300194 <omap_revision>
40300728:	e3500001 	cmp	r0, #1
4030072c:	059f30a4 	ldreq	r3, [pc, #164]	; 403007d8 <lock_core_dpll_shadow+0x104>
40300730:	0a000007 	beq	40300754 <lock_core_dpll_shadow+0x80>
40300734:	ebfffe96 	bl	40300194 <omap_revision>
40300738:	e3500002 	cmp	r0, #2
4030073c:	059f3098 	ldreq	r3, [pc, #152]	; 403007dc <lock_core_dpll_shadow+0x108>
40300740:	0a000003 	beq	40300754 <lock_core_dpll_shadow+0x80>
40300744:	ebfffe92 	bl	40300194 <omap_revision>
40300748:	e59f3090 	ldr	r3, [pc, #144]	; 403007e0 <lock_core_dpll_shadow+0x10c>
4030074c:	e3500002 	cmp	r0, #2
40300750:	93a03000 	movls	r3, #0
40300754:	e5932008 	ldr	r2, [r3, #8]
40300758:	e1a0c582 	lsl	ip, r2, #11
4030075c:	e38c1c07 	orr	r1, ip, #1792	; 0x700
40300760:	e381000d 	orr	r0, r1, #13
40300764:	e3a03901 	mov	r3, #16384	; 0x4000
40300768:	e3443a00 	movt	r3, #18944	; 0x4a00
4030076c:	e1a02003 	mov	r2, r3
40300770:	e5830260 	str	r0, [r3, #608]	; 0x260
40300774:	e592e260 	ldr	lr, [r2, #608]	; 0x260
40300778:	e31e0001 	tst	lr, #1
4030077c:	1afffffc 	bne	40300774 <lock_core_dpll_shadow+0xa0>
40300780:	e3a00001 	mov	r0, #1
40300784:	e3042124 	movw	r2, #16676	; 0x4124
40300788:	e1a01000 	mov	r1, r0
4030078c:	e3442a00 	movt	r2, #18944	; 0x4a00
40300790:	e3043240 	movw	r3, #16960	; 0x4240
40300794:	e340300f 	movt	r3, #15
40300798:	eb000699 	bl	40302204 <wait_on_value>
4030079c:	e3a02902 	mov	r2, #32768	; 0x8000
403007a0:	e3442a00 	movt	r2, #18944	; 0x4a00
403007a4:	e5920b30 	ldr	r0, [r2, #2864]	; 0xb30
403007a8:	e3100803 	tst	r0, #196608	; 0x30000
403007ac:	1afffffc 	bne	403007a4 <lock_core_dpll_shadow+0xd0>
403007b0:	e3a01902 	mov	r1, #32768	; 0x8000
403007b4:	e3441a00 	movt	r1, #18944	; 0x4a00
403007b8:	e3a03902 	mov	r3, #32768	; 0x8000
403007bc:	e591cb38 	ldr	ip, [r1, #2872]	; 0xb38
403007c0:	e3443a00 	movt	r3, #18944	; 0x4a00
403007c4:	e31c0803 	tst	ip, #196608	; 0x30000
403007c8:	1afffffa 	bne	403007b8 <lock_core_dpll_shadow+0xe4>
403007cc:	e3844003 	orr	r4, r4, #3
403007d0:	e5834b00 	str	r4, [r3, #2816]	; 0xb00
403007d4:	e8bd8010 	pop	{r4, pc}
403007d8:	40302cf4 	ldrshtmi	r2, [r0], -r4
403007dc:	40302df0 	ldrshtmi	r2, [r0], -r0
403007e0:	40302eec 	eorsmi	r2, r0, ip, ror #29

403007e4 <prcm_init>:
403007e4:	e92d46f0 	push	{r4, r5, r6, r7, r9, sl, lr}
403007e8:	e3a03a06 	mov	r3, #24576	; 0x6000
403007ec:	e3443a30 	movt	r3, #18992	; 0x4a30
403007f0:	e3a02007 	mov	r2, #7
403007f4:	e5832110 	str	r2, [r3, #272]	; 0x110
403007f8:	e5934110 	ldr	r4, [r3, #272]	; 0x110
403007fc:	ebfffe64 	bl	40300194 <omap_revision>
40300800:	e3a01000 	mov	r1, #0
40300804:	e3a02003 	mov	r2, #3
40300808:	e3a03004 	mov	r3, #4
4030080c:	e2444001 	sub	r4, r4, #1
40300810:	e1a05000 	mov	r5, r0
40300814:	e3040160 	movw	r0, #16736	; 0x4160
40300818:	e3440a00 	movt	r0, #18944	; 0x4a00
4030081c:	eb00066e 	bl	403021dc <sr32>
40300820:	e3a00001 	mov	r0, #1
40300824:	e3a01000 	mov	r1, #0
40300828:	e3042164 	movw	r2, #16740	; 0x4164
4030082c:	e3043240 	movw	r3, #16960	; 0x4240
40300830:	e3442a00 	movt	r2, #18944	; 0x4a00
40300834:	e340300f 	movt	r3, #15
40300838:	eb000671 	bl	40302204 <wait_on_value>
4030083c:	e355001f 	cmp	r5, #31
40300840:	8a000412 	bhi	40301890 <prcm_init+0x10ac>
40300844:	e355000f 	cmp	r5, #15
40300848:	8a0003f4 	bhi	40301820 <prcm_init+0x103c>
4030084c:	e1a06184 	lsl	r6, r4, #3
40300850:	e59fafc0 	ldr	sl, [pc, #4032]	; 40301818 <prcm_init+0x1034>
40300854:	e0869004 	add	r9, r6, r4
40300858:	e08a5109 	add	r5, sl, r9, lsl #2
4030085c:	e3a01000 	mov	r1, #0
40300860:	e3a02003 	mov	r2, #3
40300864:	e1a03001 	mov	r3, r1
40300868:	e3040168 	movw	r0, #16744	; 0x4168
4030086c:	e3440a00 	movt	r0, #18944	; 0x4a00
40300870:	e59faf98 	ldr	sl, [pc, #3992]	; 40301810 <prcm_init+0x102c>
40300874:	eb000658 	bl	403021dc <sr32>
40300878:	e5953000 	ldr	r3, [r5]
4030087c:	e3a01008 	mov	r1, #8
40300880:	e3a0200b 	mov	r2, #11
40300884:	e304016c 	movw	r0, #16748	; 0x416c
40300888:	e3440a00 	movt	r0, #18944	; 0x4a00
4030088c:	eb000652 	bl	403021dc <sr32>
40300890:	e5953004 	ldr	r3, [r5, #4]
40300894:	e3a01000 	mov	r1, #0
40300898:	e3a02006 	mov	r2, #6
4030089c:	e304016c 	movw	r0, #16748	; 0x416c
403008a0:	e3440a00 	movt	r0, #18944	; 0x4a00
403008a4:	eb00064c 	bl	403021dc <sr32>
403008a8:	e5953008 	ldr	r3, [r5, #8]
403008ac:	e3a01000 	mov	r1, #0
403008b0:	e3a02005 	mov	r2, #5
403008b4:	e3040170 	movw	r0, #16752	; 0x4170
403008b8:	e3440a00 	movt	r0, #18944	; 0x4a00
403008bc:	eb000646 	bl	403021dc <sr32>
403008c0:	e3a02001 	mov	r2, #1
403008c4:	e1a03002 	mov	r3, r2
403008c8:	e3a01008 	mov	r1, #8
403008cc:	e3040170 	movw	r0, #16752	; 0x4170
403008d0:	e3440a00 	movt	r0, #18944	; 0x4a00
403008d4:	eb000640 	bl	403021dc <sr32>
403008d8:	e3a01000 	mov	r1, #0
403008dc:	e3a02003 	mov	r2, #3
403008e0:	e3a03017 	mov	r3, #23
403008e4:	e3040160 	movw	r0, #16736	; 0x4160
403008e8:	e3440a00 	movt	r0, #18944	; 0x4a00
403008ec:	eb00063a 	bl	403021dc <sr32>
403008f0:	e3a00001 	mov	r0, #1
403008f4:	e1a01000 	mov	r1, r0
403008f8:	e3042164 	movw	r2, #16740	; 0x4164
403008fc:	e3043240 	movw	r3, #16960	; 0x4240
40300900:	e3442a00 	movt	r2, #18944	; 0x4a00
40300904:	e340300f 	movt	r3, #15
40300908:	e3027b20 	movw	r7, #11040	; 0x2b20
4030090c:	eb00063c 	bl	40302204 <wait_on_value>
40300910:	e3a01000 	mov	r1, #0
40300914:	e3a02003 	mov	r2, #3
40300918:	e3a03004 	mov	r3, #4
4030091c:	e30401a0 	movw	r0, #16800	; 0x41a0
40300920:	e3440a00 	movt	r0, #18944	; 0x4a00
40300924:	eb00062c 	bl	403021dc <sr32>
40300928:	e3a01000 	mov	r1, #0
4030092c:	e3a00001 	mov	r0, #1
40300930:	e30421a4 	movw	r2, #16804	; 0x41a4
40300934:	e3043240 	movw	r3, #16960	; 0x4240
40300938:	e3442a00 	movt	r2, #18944	; 0x4a00
4030093c:	e340300f 	movt	r3, #15
40300940:	e3447030 	movt	r7, #16432	; 0x4030
40300944:	eb00062e 	bl	40302204 <wait_on_value>
40300948:	e3a01000 	mov	r1, #0
4030094c:	e3a02002 	mov	r2, #2
40300950:	e3a03001 	mov	r3, #1
40300954:	e30401dc 	movw	r0, #16860	; 0x41dc
40300958:	e3440a00 	movt	r0, #18944	; 0x4a00
4030095c:	eb00061e 	bl	403021dc <sr32>
40300960:	e086c004 	add	ip, r6, r4
40300964:	e3a01000 	mov	r1, #0
40300968:	e3a02003 	mov	r2, #3
4030096c:	e1a0410c 	lsl	r4, ip, #2
40300970:	e1a03001 	mov	r3, r1
40300974:	e08a6004 	add	r6, sl, r4
40300978:	e30401a8 	movw	r0, #16808	; 0x41a8
4030097c:	e3440a00 	movt	r0, #18944	; 0x4a00
40300980:	e0875004 	add	r5, r7, r4
40300984:	eb000614 	bl	403021dc <sr32>
40300988:	e79a3004 	ldr	r3, [sl, r4]
4030098c:	e3a01008 	mov	r1, #8
40300990:	e3a0200b 	mov	r2, #11
40300994:	e30401ac 	movw	r0, #16812	; 0x41ac
40300998:	e3440a00 	movt	r0, #18944	; 0x4a00
4030099c:	eb00060e 	bl	403021dc <sr32>
403009a0:	e5963004 	ldr	r3, [r6, #4]
403009a4:	e3a01000 	mov	r1, #0
403009a8:	e3a02007 	mov	r2, #7
403009ac:	e30401ac 	movw	r0, #16812	; 0x41ac
403009b0:	e3440a00 	movt	r0, #18944	; 0x4a00
403009b4:	eb000608 	bl	403021dc <sr32>
403009b8:	e5963010 	ldr	r3, [r6, #16]
403009bc:	e3a01000 	mov	r1, #0
403009c0:	e3a02005 	mov	r2, #5
403009c4:	e30401b8 	movw	r0, #16824	; 0x41b8
403009c8:	e3440a00 	movt	r0, #18944	; 0x4a00
403009cc:	eb000602 	bl	403021dc <sr32>
403009d0:	e3a02001 	mov	r2, #1
403009d4:	e1a03002 	mov	r3, r2
403009d8:	e3a01008 	mov	r1, #8
403009dc:	e30401b8 	movw	r0, #16824	; 0x41b8
403009e0:	e3440a00 	movt	r0, #18944	; 0x4a00
403009e4:	eb0005fc 	bl	403021dc <sr32>
403009e8:	e5963014 	ldr	r3, [r6, #20]
403009ec:	e3a01000 	mov	r1, #0
403009f0:	e3a02005 	mov	r2, #5
403009f4:	e30401bc 	movw	r0, #16828	; 0x41bc
403009f8:	e3440a00 	movt	r0, #18944	; 0x4a00
403009fc:	eb0005f6 	bl	403021dc <sr32>
40300a00:	e3a02001 	mov	r2, #1
40300a04:	e1a03002 	mov	r3, r2
40300a08:	e3a01008 	mov	r1, #8
40300a0c:	e30401bc 	movw	r0, #16828	; 0x41bc
40300a10:	e3440a00 	movt	r0, #18944	; 0x4a00
40300a14:	eb0005f0 	bl	403021dc <sr32>
40300a18:	e3a01000 	mov	r1, #0
40300a1c:	e3a02003 	mov	r2, #3
40300a20:	e3a03007 	mov	r3, #7
40300a24:	e30401a0 	movw	r0, #16800	; 0x41a0
40300a28:	e3440a00 	movt	r0, #18944	; 0x4a00
40300a2c:	eb0005ea 	bl	403021dc <sr32>
40300a30:	e3a00001 	mov	r0, #1
40300a34:	e1a01000 	mov	r1, r0
40300a38:	e30421a4 	movw	r2, #16804	; 0x41a4
40300a3c:	e3043240 	movw	r3, #16960	; 0x4240
40300a40:	e3442a00 	movt	r2, #18944	; 0x4a00
40300a44:	e340300f 	movt	r3, #15
40300a48:	e28a90fc 	add	r9, sl, #252	; 0xfc
40300a4c:	eb0005ec 	bl	40302204 <wait_on_value>
40300a50:	e3a01000 	mov	r1, #0
40300a54:	e3a02003 	mov	r2, #3
40300a58:	e3a03004 	mov	r3, #4
40300a5c:	e3080140 	movw	r0, #33088	; 0x8140
40300a60:	e3440a00 	movt	r0, #18944	; 0x4a00
40300a64:	eb0005dc 	bl	403021dc <sr32>
40300a68:	e3a01000 	mov	r1, #0
40300a6c:	e3a00001 	mov	r0, #1
40300a70:	e3082144 	movw	r2, #33092	; 0x8144
40300a74:	e3043240 	movw	r3, #16960	; 0x4240
40300a78:	e3442a00 	movt	r2, #18944	; 0x4a00
40300a7c:	e340300f 	movt	r3, #15
40300a80:	e0896004 	add	r6, r9, r4
40300a84:	eb0005de 	bl	40302204 <wait_on_value>
40300a88:	e3a01000 	mov	r1, #0
40300a8c:	e1a03001 	mov	r3, r1
40300a90:	e3a02003 	mov	r2, #3
40300a94:	e3080148 	movw	r0, #33096	; 0x8148
40300a98:	e3440a00 	movt	r0, #18944	; 0x4a00
40300a9c:	eb0005ce 	bl	403021dc <sr32>
40300aa0:	e7973004 	ldr	r3, [r7, r4]
40300aa4:	e3a01008 	mov	r1, #8
40300aa8:	e3a0200b 	mov	r2, #11
40300aac:	e308014c 	movw	r0, #33100	; 0x814c
40300ab0:	e3440a00 	movt	r0, #18944	; 0x4a00
40300ab4:	eb0005c8 	bl	403021dc <sr32>
40300ab8:	e5953004 	ldr	r3, [r5, #4]
40300abc:	e3a01000 	mov	r1, #0
40300ac0:	e3a02006 	mov	r2, #6
40300ac4:	e308014c 	movw	r0, #33100	; 0x814c
40300ac8:	e3440a00 	movt	r0, #18944	; 0x4a00
40300acc:	eb0005c2 	bl	403021dc <sr32>
40300ad0:	e5953008 	ldr	r3, [r5, #8]
40300ad4:	e3a01000 	mov	r1, #0
40300ad8:	e3a02005 	mov	r2, #5
40300adc:	e3080150 	movw	r0, #33104	; 0x8150
40300ae0:	e3440a00 	movt	r0, #18944	; 0x4a00
40300ae4:	eb0005bc 	bl	403021dc <sr32>
40300ae8:	e3a02001 	mov	r2, #1
40300aec:	e1a03002 	mov	r3, r2
40300af0:	e3a01008 	mov	r1, #8
40300af4:	e3080150 	movw	r0, #33104	; 0x8150
40300af8:	e3440a00 	movt	r0, #18944	; 0x4a00
40300afc:	eb0005b6 	bl	403021dc <sr32>
40300b00:	e3a02001 	mov	r2, #1
40300b04:	e1a03002 	mov	r3, r2
40300b08:	e3a0100a 	mov	r1, #10
40300b0c:	e3080150 	movw	r0, #33104	; 0x8150
40300b10:	e3440a00 	movt	r0, #18944	; 0x4a00
40300b14:	eb0005b0 	bl	403021dc <sr32>
40300b18:	e595300c 	ldr	r3, [r5, #12]
40300b1c:	e3a01000 	mov	r1, #0
40300b20:	e3a02005 	mov	r2, #5
40300b24:	e3080154 	movw	r0, #33108	; 0x8154
40300b28:	e3440a00 	movt	r0, #18944	; 0x4a00
40300b2c:	eb0005aa 	bl	403021dc <sr32>
40300b30:	e3a02001 	mov	r2, #1
40300b34:	e1a03002 	mov	r3, r2
40300b38:	e3a01008 	mov	r1, #8
40300b3c:	e3080154 	movw	r0, #33108	; 0x8154
40300b40:	e3440a00 	movt	r0, #18944	; 0x4a00
40300b44:	eb0005a4 	bl	403021dc <sr32>
40300b48:	e5953010 	ldr	r3, [r5, #16]
40300b4c:	e3a01000 	mov	r1, #0
40300b50:	e3a02005 	mov	r2, #5
40300b54:	e3080158 	movw	r0, #33112	; 0x8158
40300b58:	e3440a00 	movt	r0, #18944	; 0x4a00
40300b5c:	eb00059e 	bl	403021dc <sr32>
40300b60:	e3a02001 	mov	r2, #1
40300b64:	e1a03002 	mov	r3, r2
40300b68:	e3a01008 	mov	r1, #8
40300b6c:	e3080158 	movw	r0, #33112	; 0x8158
40300b70:	e3440a00 	movt	r0, #18944	; 0x4a00
40300b74:	eb000598 	bl	403021dc <sr32>
40300b78:	e5953014 	ldr	r3, [r5, #20]
40300b7c:	e3a01000 	mov	r1, #0
40300b80:	e3a02005 	mov	r2, #5
40300b84:	e308015c 	movw	r0, #33116	; 0x815c
40300b88:	e3440a00 	movt	r0, #18944	; 0x4a00
40300b8c:	eb000592 	bl	403021dc <sr32>
40300b90:	e3a02001 	mov	r2, #1
40300b94:	e1a03002 	mov	r3, r2
40300b98:	e3a01008 	mov	r1, #8
40300b9c:	e308015c 	movw	r0, #33116	; 0x815c
40300ba0:	e3440a00 	movt	r0, #18944	; 0x4a00
40300ba4:	eb00058c 	bl	403021dc <sr32>
40300ba8:	e5953018 	ldr	r3, [r5, #24]
40300bac:	e3a01000 	mov	r1, #0
40300bb0:	e3a02005 	mov	r2, #5
40300bb4:	e3080160 	movw	r0, #33120	; 0x8160
40300bb8:	e3440a00 	movt	r0, #18944	; 0x4a00
40300bbc:	eb000586 	bl	403021dc <sr32>
40300bc0:	e3a02001 	mov	r2, #1
40300bc4:	e1a03002 	mov	r3, r2
40300bc8:	e3a01008 	mov	r1, #8
40300bcc:	e3080160 	movw	r0, #33120	; 0x8160
40300bd0:	e3440a00 	movt	r0, #18944	; 0x4a00
40300bd4:	eb000580 	bl	403021dc <sr32>
40300bd8:	e595301c 	ldr	r3, [r5, #28]
40300bdc:	e3a01000 	mov	r1, #0
40300be0:	e3a02005 	mov	r2, #5
40300be4:	e3080164 	movw	r0, #33124	; 0x8164
40300be8:	e3440a00 	movt	r0, #18944	; 0x4a00
40300bec:	eb00057a 	bl	403021dc <sr32>
40300bf0:	e3a02001 	mov	r2, #1
40300bf4:	e1a03002 	mov	r3, r2
40300bf8:	e3a01008 	mov	r1, #8
40300bfc:	e3080164 	movw	r0, #33124	; 0x8164
40300c00:	e3440a00 	movt	r0, #18944	; 0x4a00
40300c04:	eb000574 	bl	403021dc <sr32>
40300c08:	e3a01000 	mov	r1, #0
40300c0c:	e3a02003 	mov	r2, #3
40300c10:	e3a03007 	mov	r3, #7
40300c14:	e3080140 	movw	r0, #33088	; 0x8140
40300c18:	e3440a00 	movt	r0, #18944	; 0x4a00
40300c1c:	eb00056e 	bl	403021dc <sr32>
40300c20:	e3a00001 	mov	r0, #1
40300c24:	e1a01000 	mov	r1, r0
40300c28:	e3082144 	movw	r2, #33092	; 0x8144
40300c2c:	e3043240 	movw	r3, #16960	; 0x4240
40300c30:	e3442a00 	movt	r2, #18944	; 0x4a00
40300c34:	e340300f 	movt	r3, #15
40300c38:	e28aaf7e 	add	sl, sl, #504	; 0x1f8
40300c3c:	eb000570 	bl	40302204 <wait_on_value>
40300c40:	e3a01000 	mov	r1, #0
40300c44:	e3a02003 	mov	r2, #3
40300c48:	e3a03004 	mov	r3, #4
40300c4c:	e30401e0 	movw	r0, #16864	; 0x41e0
40300c50:	e3440a00 	movt	r0, #18944	; 0x4a00
40300c54:	eb000560 	bl	403021dc <sr32>
40300c58:	e3a01000 	mov	r1, #0
40300c5c:	e3a00001 	mov	r0, #1
40300c60:	e30421e4 	movw	r2, #16868	; 0x41e4
40300c64:	e3043240 	movw	r3, #16960	; 0x4240
40300c68:	e3442a00 	movt	r2, #18944	; 0x4a00
40300c6c:	e340300f 	movt	r3, #15
40300c70:	e08a5004 	add	r5, sl, r4
40300c74:	eb000562 	bl	40302204 <wait_on_value>
40300c78:	e3a01000 	mov	r1, #0
40300c7c:	e1a03001 	mov	r3, r1
40300c80:	e3a02003 	mov	r2, #3
40300c84:	e30401e8 	movw	r0, #16872	; 0x41e8
40300c88:	e3440a00 	movt	r0, #18944	; 0x4a00
40300c8c:	eb000552 	bl	403021dc <sr32>
40300c90:	e7993004 	ldr	r3, [r9, r4]
40300c94:	e3a01008 	mov	r1, #8
40300c98:	e3a0200b 	mov	r2, #11
40300c9c:	e30401ec 	movw	r0, #16876	; 0x41ec
40300ca0:	e3440a00 	movt	r0, #18944	; 0x4a00
40300ca4:	eb00054c 	bl	403021dc <sr32>
40300ca8:	e3a01000 	mov	r1, #0
40300cac:	e3a02007 	mov	r2, #7
40300cb0:	e5963004 	ldr	r3, [r6, #4]
40300cb4:	e30401ec 	movw	r0, #16876	; 0x41ec
40300cb8:	e3440a00 	movt	r0, #18944	; 0x4a00
40300cbc:	eb000546 	bl	403021dc <sr32>
40300cc0:	e3a01000 	mov	r1, #0
40300cc4:	e3a02020 	mov	r2, #32
40300cc8:	e3a03c05 	mov	r3, #1280	; 0x500
40300ccc:	e30401f0 	movw	r0, #16880	; 0x41f0
40300cd0:	e3440a00 	movt	r0, #18944	; 0x4a00
40300cd4:	eb000540 	bl	403021dc <sr32>
40300cd8:	e3a01000 	mov	r1, #0
40300cdc:	e3a02005 	mov	r2, #5
40300ce0:	e5963008 	ldr	r3, [r6, #8]
40300ce4:	e30401f0 	movw	r0, #16880	; 0x41f0
40300ce8:	e3440a00 	movt	r0, #18944	; 0x4a00
40300cec:	eb00053a 	bl	403021dc <sr32>
40300cf0:	e3a02001 	mov	r2, #1
40300cf4:	e1a03002 	mov	r3, r2
40300cf8:	e3a01008 	mov	r1, #8
40300cfc:	e30401f0 	movw	r0, #16880	; 0x41f0
40300d00:	e3440a00 	movt	r0, #18944	; 0x4a00
40300d04:	eb000534 	bl	403021dc <sr32>
40300d08:	e3a01000 	mov	r1, #0
40300d0c:	e3a02020 	mov	r2, #32
40300d10:	e3a03c01 	mov	r3, #256	; 0x100
40300d14:	e30401f4 	movw	r0, #16884	; 0x41f4
40300d18:	e3440a00 	movt	r0, #18944	; 0x4a00
40300d1c:	eb00052e 	bl	403021dc <sr32>
40300d20:	e3a01000 	mov	r1, #0
40300d24:	e3a02005 	mov	r2, #5
40300d28:	e596300c 	ldr	r3, [r6, #12]
40300d2c:	e30401f4 	movw	r0, #16884	; 0x41f4
40300d30:	e3440a00 	movt	r0, #18944	; 0x4a00
40300d34:	eb000528 	bl	403021dc <sr32>
40300d38:	e3a02001 	mov	r2, #1
40300d3c:	e1a03002 	mov	r3, r2
40300d40:	e3a01008 	mov	r1, #8
40300d44:	e30401f4 	movw	r0, #16884	; 0x41f4
40300d48:	e3440a00 	movt	r0, #18944	; 0x4a00
40300d4c:	eb000522 	bl	403021dc <sr32>
40300d50:	e3a01000 	mov	r1, #0
40300d54:	e3a02003 	mov	r2, #3
40300d58:	e3a03007 	mov	r3, #7
40300d5c:	e30401e0 	movw	r0, #16864	; 0x41e0
40300d60:	e3440a00 	movt	r0, #18944	; 0x4a00
40300d64:	eb00051c 	bl	403021dc <sr32>
40300d68:	e3a00001 	mov	r0, #1
40300d6c:	e1a01000 	mov	r1, r0
40300d70:	e30421e4 	movw	r2, #16868	; 0x41e4
40300d74:	e3043240 	movw	r3, #16960	; 0x4240
40300d78:	e3442a00 	movt	r2, #18944	; 0x4a00
40300d7c:	e340300f 	movt	r3, #15
40300d80:	eb00051f 	bl	40302204 <wait_on_value>
40300d84:	e3a01000 	mov	r1, #0
40300d88:	e3a02020 	mov	r2, #32
40300d8c:	e3a03001 	mov	r3, #1
40300d90:	e3080104 	movw	r0, #33028	; 0x8104
40300d94:	e3440a00 	movt	r0, #18944	; 0x4a00
40300d98:	eb00050f 	bl	403021dc <sr32>
40300d9c:	e3a01000 	mov	r1, #0
40300da0:	e3a02003 	mov	r2, #3
40300da4:	e3a03004 	mov	r3, #4
40300da8:	e3080180 	movw	r0, #33152	; 0x8180
40300dac:	e3440a00 	movt	r0, #18944	; 0x4a00
40300db0:	eb000509 	bl	403021dc <sr32>
40300db4:	e3a01000 	mov	r1, #0
40300db8:	e3a00001 	mov	r0, #1
40300dbc:	e3082184 	movw	r2, #33156	; 0x8184
40300dc0:	e3043240 	movw	r3, #16960	; 0x4240
40300dc4:	e3442a00 	movt	r2, #18944	; 0x4a00
40300dc8:	e340300f 	movt	r3, #15
40300dcc:	eb00050c 	bl	40302204 <wait_on_value>
40300dd0:	e3a01000 	mov	r1, #0
40300dd4:	e1a03001 	mov	r3, r1
40300dd8:	e3a02003 	mov	r2, #3
40300ddc:	e3080188 	movw	r0, #33160	; 0x8188
40300de0:	e3440a00 	movt	r0, #18944	; 0x4a00
40300de4:	eb0004fc 	bl	403021dc <sr32>
40300de8:	e3a01018 	mov	r1, #24
40300dec:	e3a02008 	mov	r2, #8
40300df0:	e5953020 	ldr	r3, [r5, #32]
40300df4:	e308018c 	movw	r0, #33164	; 0x818c
40300df8:	e3440a00 	movt	r0, #18944	; 0x4a00
40300dfc:	eb0004f6 	bl	403021dc <sr32>
40300e00:	e79a3004 	ldr	r3, [sl, r4]
40300e04:	e3a01008 	mov	r1, #8
40300e08:	e3a0200b 	mov	r2, #11
40300e0c:	e308018c 	movw	r0, #33164	; 0x818c
40300e10:	e3440a00 	movt	r0, #18944	; 0x4a00
40300e14:	eb0004f0 	bl	403021dc <sr32>
40300e18:	e3a01000 	mov	r1, #0
40300e1c:	e3a02006 	mov	r2, #6
40300e20:	e5953004 	ldr	r3, [r5, #4]
40300e24:	e308018c 	movw	r0, #33164	; 0x818c
40300e28:	e3440a00 	movt	r0, #18944	; 0x4a00
40300e2c:	eb0004ea 	bl	403021dc <sr32>
40300e30:	e3a01000 	mov	r1, #0
40300e34:	e3a02020 	mov	r2, #32
40300e38:	e3a03c01 	mov	r3, #256	; 0x100
40300e3c:	e3080190 	movw	r0, #33168	; 0x8190
40300e40:	e3440a00 	movt	r0, #18944	; 0x4a00
40300e44:	eb0004e4 	bl	403021dc <sr32>
40300e48:	e3a01000 	mov	r1, #0
40300e4c:	e3a02005 	mov	r2, #5
40300e50:	e5953008 	ldr	r3, [r5, #8]
40300e54:	e3080190 	movw	r0, #33168	; 0x8190
40300e58:	e3440a00 	movt	r0, #18944	; 0x4a00
40300e5c:	eb0004de 	bl	403021dc <sr32>
40300e60:	e3a02001 	mov	r2, #1
40300e64:	e1a03002 	mov	r3, r2
40300e68:	e3a01008 	mov	r1, #8
40300e6c:	e3080190 	movw	r0, #33168	; 0x8190
40300e70:	e3440a00 	movt	r0, #18944	; 0x4a00
40300e74:	eb0004d8 	bl	403021dc <sr32>
40300e78:	e3a02001 	mov	r2, #1
40300e7c:	e1a03002 	mov	r3, r2
40300e80:	e3a01008 	mov	r1, #8
40300e84:	e30801b4 	movw	r0, #33204	; 0x81b4
40300e88:	e3440a00 	movt	r0, #18944	; 0x4a00
40300e8c:	eb0004d2 	bl	403021dc <sr32>
40300e90:	e3a01000 	mov	r1, #0
40300e94:	e3a02003 	mov	r2, #3
40300e98:	e3a03007 	mov	r3, #7
40300e9c:	e3080180 	movw	r0, #33152	; 0x8180
40300ea0:	e3440a00 	movt	r0, #18944	; 0x4a00
40300ea4:	eb0004cc 	bl	403021dc <sr32>
40300ea8:	e3a00001 	mov	r0, #1
40300eac:	e1a01000 	mov	r1, r0
40300eb0:	e3082184 	movw	r2, #33156	; 0x8184
40300eb4:	e3043240 	movw	r3, #16960	; 0x4240
40300eb8:	e3442a00 	movt	r2, #18944	; 0x4a00
40300ebc:	e340300f 	movt	r3, #15
40300ec0:	eb0004cf 	bl	40302204 <wait_on_value>
40300ec4:	e3a01000 	mov	r1, #0
40300ec8:	e3a02020 	mov	r2, #32
40300ecc:	e3a03c01 	mov	r3, #256	; 0x100
40300ed0:	e30801b4 	movw	r0, #33204	; 0x81b4
40300ed4:	e3440a00 	movt	r0, #18944	; 0x4a00
40300ed8:	eb0004bf 	bl	403021dc <sr32>
40300edc:	ebfffcac 	bl	40300194 <omap_revision>
40300ee0:	e3500001 	cmp	r0, #1
40300ee4:	e1a04000 	mov	r4, r0
40300ee8:	0a0002eb 	beq	40301a9c <prcm_init+0x12b8>
40300eec:	e3a01000 	mov	r1, #0
40300ef0:	e3a02020 	mov	r2, #32
40300ef4:	e3a03002 	mov	r3, #2
40300ef8:	e3a00b25 	mov	r0, #37888	; 0x9400
40300efc:	e3440a00 	movt	r0, #18944	; 0x4a00
40300f00:	eb0004b5 	bl	403021dc <sr32>
40300f04:	e3a01000 	mov	r1, #0
40300f08:	e3a02020 	mov	r2, #32
40300f0c:	e3a03002 	mov	r3, #2
40300f10:	e3090428 	movw	r0, #37928	; 0x9428
40300f14:	e3440a00 	movt	r0, #18944	; 0x4a00
40300f18:	eb0004af 	bl	403021dc <sr32>
40300f1c:	e3a01000 	mov	r1, #0
40300f20:	e3a00803 	mov	r0, #196608	; 0x30000
40300f24:	e3092428 	movw	r2, #37928	; 0x9428
40300f28:	e3043240 	movw	r3, #16960	; 0x4240
40300f2c:	e3442a00 	movt	r2, #18944	; 0x4a00
40300f30:	e340300f 	movt	r3, #15
40300f34:	eb0004b2 	bl	40302204 <wait_on_value>
40300f38:	e3a01000 	mov	r1, #0
40300f3c:	e3a02020 	mov	r2, #32
40300f40:	e3a03002 	mov	r3, #2
40300f44:	e3090430 	movw	r0, #37936	; 0x9430
40300f48:	e3440a00 	movt	r0, #18944	; 0x4a00
40300f4c:	eb0004a2 	bl	403021dc <sr32>
40300f50:	e3a01000 	mov	r1, #0
40300f54:	e3a00803 	mov	r0, #196608	; 0x30000
40300f58:	e3092430 	movw	r2, #37936	; 0x9430
40300f5c:	e3043240 	movw	r3, #16960	; 0x4240
40300f60:	e3442a00 	movt	r2, #18944	; 0x4a00
40300f64:	e340300f 	movt	r3, #15
40300f68:	eb0004a5 	bl	40302204 <wait_on_value>
40300f6c:	e3a01000 	mov	r1, #0
40300f70:	e3a02020 	mov	r2, #32
40300f74:	e3a03002 	mov	r3, #2
40300f78:	e3090438 	movw	r0, #37944	; 0x9438
40300f7c:	e3440a00 	movt	r0, #18944	; 0x4a00
40300f80:	eb000495 	bl	403021dc <sr32>
40300f84:	e3a01000 	mov	r1, #0
40300f88:	e3a00803 	mov	r0, #196608	; 0x30000
40300f8c:	e3092438 	movw	r2, #37944	; 0x9438
40300f90:	e3043240 	movw	r3, #16960	; 0x4240
40300f94:	e3442a00 	movt	r2, #18944	; 0x4a00
40300f98:	e340300f 	movt	r3, #15
40300f9c:	eb000498 	bl	40302204 <wait_on_value>
40300fa0:	e3a01000 	mov	r1, #0
40300fa4:	e3a02020 	mov	r2, #32
40300fa8:	e3a03002 	mov	r3, #2
40300fac:	e3090440 	movw	r0, #37952	; 0x9440
40300fb0:	e3440a00 	movt	r0, #18944	; 0x4a00
40300fb4:	eb000488 	bl	403021dc <sr32>
40300fb8:	e3a01000 	mov	r1, #0
40300fbc:	e3a00803 	mov	r0, #196608	; 0x30000
40300fc0:	e3092440 	movw	r2, #37952	; 0x9440
40300fc4:	e3043240 	movw	r3, #16960	; 0x4240
40300fc8:	e3442a00 	movt	r2, #18944	; 0x4a00
40300fcc:	e340300f 	movt	r3, #15
40300fd0:	eb00048b 	bl	40302204 <wait_on_value>
40300fd4:	e3a01000 	mov	r1, #0
40300fd8:	e3a02020 	mov	r2, #32
40300fdc:	e3a03002 	mov	r3, #2
40300fe0:	e3090448 	movw	r0, #37960	; 0x9448
40300fe4:	e3440a00 	movt	r0, #18944	; 0x4a00
40300fe8:	eb00047b 	bl	403021dc <sr32>
40300fec:	e3a01000 	mov	r1, #0
40300ff0:	e3a00803 	mov	r0, #196608	; 0x30000
40300ff4:	e3092448 	movw	r2, #37960	; 0x9448
40300ff8:	e3043240 	movw	r3, #16960	; 0x4240
40300ffc:	e3442a00 	movt	r2, #18944	; 0x4a00
40301000:	e340300f 	movt	r3, #15
40301004:	eb00047e 	bl	40302204 <wait_on_value>
40301008:	e3a01000 	mov	r1, #0
4030100c:	e3a02020 	mov	r2, #32
40301010:	e3a03002 	mov	r3, #2
40301014:	e3090450 	movw	r0, #37968	; 0x9450
40301018:	e3440a00 	movt	r0, #18944	; 0x4a00
4030101c:	eb00046e 	bl	403021dc <sr32>
40301020:	e3a01000 	mov	r1, #0
40301024:	e3a00803 	mov	r0, #196608	; 0x30000
40301028:	e3092450 	movw	r2, #37968	; 0x9450
4030102c:	e3043240 	movw	r3, #16960	; 0x4240
40301030:	e3442a00 	movt	r2, #18944	; 0x4a00
40301034:	e340300f 	movt	r3, #15
40301038:	eb000471 	bl	40302204 <wait_on_value>
4030103c:	e3a01000 	mov	r1, #0
40301040:	e3a02020 	mov	r2, #32
40301044:	e3a03001 	mov	r3, #1
40301048:	e3090460 	movw	r0, #37984	; 0x9460
4030104c:	e3440a00 	movt	r0, #18944	; 0x4a00
40301050:	eb000461 	bl	403021dc <sr32>
40301054:	e3a01000 	mov	r1, #0
40301058:	e3a00803 	mov	r0, #196608	; 0x30000
4030105c:	e3092460 	movw	r2, #37984	; 0x9460
40301060:	e3043240 	movw	r3, #16960	; 0x4240
40301064:	e3442a00 	movt	r2, #18944	; 0x4a00
40301068:	e340300f 	movt	r3, #15
4030106c:	eb000464 	bl	40302204 <wait_on_value>
40301070:	e3a01000 	mov	r1, #0
40301074:	e3a02020 	mov	r2, #32
40301078:	e3a03001 	mov	r3, #1
4030107c:	e3090468 	movw	r0, #37992	; 0x9468
40301080:	e3440a00 	movt	r0, #18944	; 0x4a00
40301084:	eb000454 	bl	403021dc <sr32>
40301088:	e3a01000 	mov	r1, #0
4030108c:	e3a00803 	mov	r0, #196608	; 0x30000
40301090:	e3092468 	movw	r2, #37992	; 0x9468
40301094:	e3043240 	movw	r3, #16960	; 0x4240
40301098:	e3442a00 	movt	r2, #18944	; 0x4a00
4030109c:	e340300f 	movt	r3, #15
403010a0:	eb000457 	bl	40302204 <wait_on_value>
403010a4:	e3a01000 	mov	r1, #0
403010a8:	e3a02020 	mov	r2, #32
403010ac:	e3a03001 	mov	r3, #1
403010b0:	e3090470 	movw	r0, #38000	; 0x9470
403010b4:	e3440a00 	movt	r0, #18944	; 0x4a00
403010b8:	eb000447 	bl	403021dc <sr32>
403010bc:	e3a01000 	mov	r1, #0
403010c0:	e3a00803 	mov	r0, #196608	; 0x30000
403010c4:	e3092470 	movw	r2, #38000	; 0x9470
403010c8:	e3043240 	movw	r3, #16960	; 0x4240
403010cc:	e3442a00 	movt	r2, #18944	; 0x4a00
403010d0:	e340300f 	movt	r3, #15
403010d4:	eb00044a 	bl	40302204 <wait_on_value>
403010d8:	e3a02001 	mov	r2, #1
403010dc:	e1a03002 	mov	r3, r2
403010e0:	e3a01008 	mov	r1, #8
403010e4:	e3090470 	movw	r0, #38000	; 0x9470
403010e8:	e3440a00 	movt	r0, #18944	; 0x4a00
403010ec:	eb00043a 	bl	403021dc <sr32>
403010f0:	e3a01000 	mov	r1, #0
403010f4:	e3a02020 	mov	r2, #32
403010f8:	e3a03001 	mov	r3, #1
403010fc:	e3090478 	movw	r0, #38008	; 0x9478
40301100:	e3440a00 	movt	r0, #18944	; 0x4a00
40301104:	eb000434 	bl	403021dc <sr32>
40301108:	e3a01000 	mov	r1, #0
4030110c:	e3a00803 	mov	r0, #196608	; 0x30000
40301110:	e3092478 	movw	r2, #38008	; 0x9478
40301114:	e3043240 	movw	r3, #16960	; 0x4240
40301118:	e3442a00 	movt	r2, #18944	; 0x4a00
4030111c:	e340300f 	movt	r3, #15
40301120:	eb000437 	bl	40302204 <wait_on_value>
40301124:	e3a01000 	mov	r1, #0
40301128:	e3a02020 	mov	r2, #32
4030112c:	e3a03001 	mov	r3, #1
40301130:	e3090480 	movw	r0, #38016	; 0x9480
40301134:	e3440a00 	movt	r0, #18944	; 0x4a00
40301138:	eb000427 	bl	403021dc <sr32>
4030113c:	e3a01000 	mov	r1, #0
40301140:	e3a00803 	mov	r0, #196608	; 0x30000
40301144:	e3092480 	movw	r2, #38016	; 0x9480
40301148:	e3043240 	movw	r3, #16960	; 0x4240
4030114c:	e3442a00 	movt	r2, #18944	; 0x4a00
40301150:	e340300f 	movt	r3, #15
40301154:	eb00042a 	bl	40302204 <wait_on_value>
40301158:	e3a01000 	mov	r1, #0
4030115c:	e3a02020 	mov	r2, #32
40301160:	e3a03002 	mov	r3, #2
40301164:	e3090488 	movw	r0, #38024	; 0x9488
40301168:	e3440a00 	movt	r0, #18944	; 0x4a00
4030116c:	eb00041a 	bl	403021dc <sr32>
40301170:	e3a01000 	mov	r1, #0
40301174:	e3a02020 	mov	r2, #32
40301178:	e3a03002 	mov	r3, #2
4030117c:	e30904a0 	movw	r0, #38048	; 0x94a0
40301180:	e3440a00 	movt	r0, #18944	; 0x4a00
40301184:	eb000414 	bl	403021dc <sr32>
40301188:	e3a01000 	mov	r1, #0
4030118c:	e3a00803 	mov	r0, #196608	; 0x30000
40301190:	e30924a0 	movw	r2, #38048	; 0x94a0
40301194:	e3043240 	movw	r3, #16960	; 0x4240
40301198:	e3442a00 	movt	r2, #18944	; 0x4a00
4030119c:	e340300f 	movt	r3, #15
403011a0:	eb000417 	bl	40302204 <wait_on_value>
403011a4:	e3a01000 	mov	r1, #0
403011a8:	e3a02020 	mov	r2, #32
403011ac:	e3a03002 	mov	r3, #2
403011b0:	e30904a8 	movw	r0, #38056	; 0x94a8
403011b4:	e3440a00 	movt	r0, #18944	; 0x4a00
403011b8:	eb000407 	bl	403021dc <sr32>
403011bc:	e3a01000 	mov	r1, #0
403011c0:	e3a00803 	mov	r0, #196608	; 0x30000
403011c4:	e30924a8 	movw	r2, #38056	; 0x94a8
403011c8:	e3043240 	movw	r3, #16960	; 0x4240
403011cc:	e3442a00 	movt	r2, #18944	; 0x4a00
403011d0:	e340300f 	movt	r3, #15
403011d4:	eb00040a 	bl	40302204 <wait_on_value>
403011d8:	e3a01000 	mov	r1, #0
403011dc:	e3a02020 	mov	r2, #32
403011e0:	e3a03002 	mov	r3, #2
403011e4:	e30904b0 	movw	r0, #38064	; 0x94b0
403011e8:	e3440a00 	movt	r0, #18944	; 0x4a00
403011ec:	eb0003fa 	bl	403021dc <sr32>
403011f0:	e3a01000 	mov	r1, #0
403011f4:	e3a00803 	mov	r0, #196608	; 0x30000
403011f8:	e30924b0 	movw	r2, #38064	; 0x94b0
403011fc:	e3043240 	movw	r3, #16960	; 0x4240
40301200:	e3442a00 	movt	r2, #18944	; 0x4a00
40301204:	e340300f 	movt	r3, #15
40301208:	eb0003fd 	bl	40302204 <wait_on_value>
4030120c:	e3a01000 	mov	r1, #0
40301210:	e3a02020 	mov	r2, #32
40301214:	e3a03002 	mov	r3, #2
40301218:	e30904b8 	movw	r0, #38072	; 0x94b8
4030121c:	e3440a00 	movt	r0, #18944	; 0x4a00
40301220:	eb0003ed 	bl	403021dc <sr32>
40301224:	e3a01000 	mov	r1, #0
40301228:	e3a00803 	mov	r0, #196608	; 0x30000
4030122c:	e30924b8 	movw	r2, #38072	; 0x94b8
40301230:	e3043240 	movw	r3, #16960	; 0x4240
40301234:	e3442a00 	movt	r2, #18944	; 0x4a00
40301238:	e340300f 	movt	r3, #15
4030123c:	eb0003f0 	bl	40302204 <wait_on_value>
40301240:	e3a01000 	mov	r1, #0
40301244:	e3a02020 	mov	r2, #32
40301248:	e3a03002 	mov	r3, #2
4030124c:	e30904e0 	movw	r0, #38112	; 0x94e0
40301250:	e3440a00 	movt	r0, #18944	; 0x4a00
40301254:	eb0003e0 	bl	403021dc <sr32>
40301258:	e3a01000 	mov	r1, #0
4030125c:	e3a00803 	mov	r0, #196608	; 0x30000
40301260:	e30924e0 	movw	r2, #38112	; 0x94e0
40301264:	e3043240 	movw	r3, #16960	; 0x4240
40301268:	e3442a00 	movt	r2, #18944	; 0x4a00
4030126c:	e340300f 	movt	r3, #15
40301270:	eb0003e3 	bl	40302204 <wait_on_value>
40301274:	e3a01000 	mov	r1, #0
40301278:	e3a02020 	mov	r2, #32
4030127c:	e3a03002 	mov	r3, #2
40301280:	e30904f0 	movw	r0, #38128	; 0x94f0
40301284:	e3440a00 	movt	r0, #18944	; 0x4a00
40301288:	eb0003d3 	bl	403021dc <sr32>
4030128c:	e3a01000 	mov	r1, #0
40301290:	e3a00803 	mov	r0, #196608	; 0x30000
40301294:	e30924f0 	movw	r2, #38128	; 0x94f0
40301298:	e3043240 	movw	r3, #16960	; 0x4240
4030129c:	e3442a00 	movt	r2, #18944	; 0x4a00
403012a0:	e340300f 	movt	r3, #15
403012a4:	eb0003d6 	bl	40302204 <wait_on_value>
403012a8:	e3a01000 	mov	r1, #0
403012ac:	e3a02020 	mov	r2, #32
403012b0:	e3a03002 	mov	r3, #2
403012b4:	e30904f8 	movw	r0, #38136	; 0x94f8
403012b8:	e3440a00 	movt	r0, #18944	; 0x4a00
403012bc:	eb0003c6 	bl	403021dc <sr32>
403012c0:	e3a01000 	mov	r1, #0
403012c4:	e3a00803 	mov	r0, #196608	; 0x30000
403012c8:	e30924f8 	movw	r2, #38136	; 0x94f8
403012cc:	e3043240 	movw	r3, #16960	; 0x4240
403012d0:	e3442a00 	movt	r2, #18944	; 0x4a00
403012d4:	e340300f 	movt	r3, #15
403012d8:	eb0003c9 	bl	40302204 <wait_on_value>
403012dc:	e3a01000 	mov	r1, #0
403012e0:	e3a02020 	mov	r2, #32
403012e4:	e3a03002 	mov	r3, #2
403012e8:	e3a00c95 	mov	r0, #38144	; 0x9500
403012ec:	e3440a00 	movt	r0, #18944	; 0x4a00
403012f0:	eb0003b9 	bl	403021dc <sr32>
403012f4:	e3a01000 	mov	r1, #0
403012f8:	e3a00803 	mov	r0, #196608	; 0x30000
403012fc:	e3a02c95 	mov	r2, #38144	; 0x9500
40301300:	e3043240 	movw	r3, #16960	; 0x4240
40301304:	e3442a00 	movt	r2, #18944	; 0x4a00
40301308:	e340300f 	movt	r3, #15
4030130c:	eb0003bc 	bl	40302204 <wait_on_value>
40301310:	e3a01000 	mov	r1, #0
40301314:	e3a02020 	mov	r2, #32
40301318:	e3a03002 	mov	r3, #2
4030131c:	e3090508 	movw	r0, #38152	; 0x9508
40301320:	e3440a00 	movt	r0, #18944	; 0x4a00
40301324:	eb0003ac 	bl	403021dc <sr32>
40301328:	e3a01000 	mov	r1, #0
4030132c:	e3a00803 	mov	r0, #196608	; 0x30000
40301330:	e3092508 	movw	r2, #38152	; 0x9508
40301334:	e3043240 	movw	r3, #16960	; 0x4240
40301338:	e3442a00 	movt	r2, #18944	; 0x4a00
4030133c:	e340300f 	movt	r3, #15
40301340:	eb0003af 	bl	40302204 <wait_on_value>
40301344:	e3a02002 	mov	r2, #2
40301348:	e1a03002 	mov	r3, r2
4030134c:	e3a01000 	mov	r1, #0
40301350:	e3090328 	movw	r0, #37672	; 0x9328
40301354:	e3440a00 	movt	r0, #18944	; 0x4a00
40301358:	eb00039f 	bl	403021dc <sr32>
4030135c:	e3a02001 	mov	r2, #1
40301360:	e1a03002 	mov	r3, r2
40301364:	e3a01018 	mov	r1, #24
40301368:	e3090328 	movw	r0, #37672	; 0x9328
4030136c:	e3440a00 	movt	r0, #18944	; 0x4a00
40301370:	eb000399 	bl	403021dc <sr32>
40301374:	e3a02002 	mov	r2, #2
40301378:	e1a03002 	mov	r3, r2
4030137c:	e3a01000 	mov	r1, #0
40301380:	e3090330 	movw	r0, #37680	; 0x9330
40301384:	e3440a00 	movt	r0, #18944	; 0x4a00
40301388:	eb000393 	bl	403021dc <sr32>
4030138c:	e3a02001 	mov	r2, #1
40301390:	e1a03002 	mov	r3, r2
40301394:	e3a01018 	mov	r1, #24
40301398:	e3090330 	movw	r0, #37680	; 0x9330
4030139c:	e3440a00 	movt	r0, #18944	; 0x4a00
403013a0:	eb00038d 	bl	403021dc <sr32>
403013a4:	e3a01000 	mov	r1, #0
403013a8:	e3a02020 	mov	r2, #32
403013ac:	e3a03002 	mov	r3, #2
403013b0:	e3090520 	movw	r0, #38176	; 0x9520
403013b4:	e3440a00 	movt	r0, #18944	; 0x4a00
403013b8:	eb000387 	bl	403021dc <sr32>
403013bc:	e3a01000 	mov	r1, #0
403013c0:	e3a00807 	mov	r0, #458752	; 0x70000
403013c4:	e3092520 	movw	r2, #38176	; 0x9520
403013c8:	e3043240 	movw	r3, #16960	; 0x4240
403013cc:	e3442a00 	movt	r2, #18944	; 0x4a00
403013d0:	e340300f 	movt	r3, #15
403013d4:	eb00038a 	bl	40302204 <wait_on_value>
403013d8:	e3a01000 	mov	r1, #0
403013dc:	e3a02020 	mov	r2, #32
403013e0:	e3a03002 	mov	r3, #2
403013e4:	e3090528 	movw	r0, #38184	; 0x9528
403013e8:	e3440a00 	movt	r0, #18944	; 0x4a00
403013ec:	eb00037a 	bl	403021dc <sr32>
403013f0:	e3a01000 	mov	r1, #0
403013f4:	e3a00807 	mov	r0, #458752	; 0x70000
403013f8:	e3092528 	movw	r2, #38184	; 0x9528
403013fc:	e3043240 	movw	r3, #16960	; 0x4240
40301400:	e3442a00 	movt	r2, #18944	; 0x4a00
40301404:	e340300f 	movt	r3, #15
40301408:	eb00037d 	bl	40302204 <wait_on_value>
4030140c:	e3a01000 	mov	r1, #0
40301410:	e3a02020 	mov	r2, #32
40301414:	e3a03002 	mov	r3, #2
40301418:	e3090560 	movw	r0, #38240	; 0x9560
4030141c:	e3440a00 	movt	r0, #18944	; 0x4a00
40301420:	eb00036d 	bl	403021dc <sr32>
40301424:	e3a01000 	mov	r1, #0
40301428:	e3a00803 	mov	r0, #196608	; 0x30000
4030142c:	e3092560 	movw	r2, #38240	; 0x9560
40301430:	e3043240 	movw	r3, #16960	; 0x4240
40301434:	e3442a00 	movt	r2, #18944	; 0x4a00
40301438:	e340300f 	movt	r3, #15
4030143c:	eb000370 	bl	40302204 <wait_on_value>
40301440:	e3a01000 	mov	r1, #0
40301444:	e3a02020 	mov	r2, #32
40301448:	e3a03002 	mov	r3, #2
4030144c:	e3090540 	movw	r0, #38208	; 0x9540
40301450:	e3440a00 	movt	r0, #18944	; 0x4a00
40301454:	eb000360 	bl	403021dc <sr32>
40301458:	e3a01000 	mov	r1, #0
4030145c:	e3a00803 	mov	r0, #196608	; 0x30000
40301460:	e3092540 	movw	r2, #38208	; 0x9540
40301464:	e3043240 	movw	r3, #16960	; 0x4240
40301468:	e3442a00 	movt	r2, #18944	; 0x4a00
4030146c:	e340300f 	movt	r3, #15
40301470:	eb000363 	bl	40302204 <wait_on_value>
40301474:	e3a01000 	mov	r1, #0
40301478:	e3a02020 	mov	r2, #32
4030147c:	e3a03002 	mov	r3, #2
40301480:	e3090548 	movw	r0, #38216	; 0x9548
40301484:	e3440a00 	movt	r0, #18944	; 0x4a00
40301488:	eb000353 	bl	403021dc <sr32>
4030148c:	e3a01000 	mov	r1, #0
40301490:	e3a00803 	mov	r0, #196608	; 0x30000
40301494:	e3092548 	movw	r2, #38216	; 0x9548
40301498:	e3043240 	movw	r3, #16960	; 0x4240
4030149c:	e3442a00 	movt	r2, #18944	; 0x4a00
403014a0:	e340300f 	movt	r3, #15
403014a4:	eb000356 	bl	40302204 <wait_on_value>
403014a8:	e3a01000 	mov	r1, #0
403014ac:	e3a02020 	mov	r2, #32
403014b0:	e3a03002 	mov	r3, #2
403014b4:	e3090550 	movw	r0, #38224	; 0x9550
403014b8:	e3440a00 	movt	r0, #18944	; 0x4a00
403014bc:	eb000346 	bl	403021dc <sr32>
403014c0:	e3a01000 	mov	r1, #0
403014c4:	e3a00803 	mov	r0, #196608	; 0x30000
403014c8:	e3092550 	movw	r2, #38224	; 0x9550
403014cc:	e3043240 	movw	r3, #16960	; 0x4240
403014d0:	e3442a00 	movt	r2, #18944	; 0x4a00
403014d4:	e340300f 	movt	r3, #15
403014d8:	eb000349 	bl	40302204 <wait_on_value>
403014dc:	e3a01000 	mov	r1, #0
403014e0:	e3a02020 	mov	r2, #32
403014e4:	e3a03002 	mov	r3, #2
403014e8:	e3090558 	movw	r0, #38232	; 0x9558
403014ec:	e3440a00 	movt	r0, #18944	; 0x4a00
403014f0:	eb000339 	bl	403021dc <sr32>
403014f4:	e3a01000 	mov	r1, #0
403014f8:	e3a00803 	mov	r0, #196608	; 0x30000
403014fc:	e3092558 	movw	r2, #38232	; 0x9558
40301500:	e3043240 	movw	r3, #16960	; 0x4240
40301504:	e3442a00 	movt	r2, #18944	; 0x4a00
40301508:	e340300f 	movt	r3, #15
4030150c:	eb00033c 	bl	40302204 <wait_on_value>
40301510:	e3a01000 	mov	r1, #0
40301514:	e3a02020 	mov	r2, #32
40301518:	e3a03001 	mov	r3, #1
4030151c:	e3070838 	movw	r0, #30776	; 0x7838
40301520:	e3440a30 	movt	r0, #18992	; 0x4a30
40301524:	eb00032c 	bl	403021dc <sr32>
40301528:	e3a01000 	mov	r1, #0
4030152c:	e3a00803 	mov	r0, #196608	; 0x30000
40301530:	e3072838 	movw	r2, #30776	; 0x7838
40301534:	e3043240 	movw	r3, #16960	; 0x4240
40301538:	e3442a30 	movt	r2, #18992	; 0x4a30
4030153c:	e340300f 	movt	r3, #15
40301540:	eb00032f 	bl	40302204 <wait_on_value>
40301544:	e3a01000 	mov	r1, #0
40301548:	e3a02020 	mov	r2, #32
4030154c:	e3070840 	movw	r0, #30784	; 0x7840
40301550:	e3a03002 	mov	r3, #2
40301554:	e3440a30 	movt	r0, #18992	; 0x4a30
40301558:	e3403100 	movt	r3, #256	; 0x100
4030155c:	eb00031e 	bl	403021dc <sr32>
40301560:	e3a01000 	mov	r1, #0
40301564:	e3a00803 	mov	r0, #196608	; 0x30000
40301568:	e3072840 	movw	r2, #30784	; 0x7840
4030156c:	e3043240 	movw	r3, #16960	; 0x4240
40301570:	e3442a30 	movt	r2, #18992	; 0x4a30
40301574:	e340300f 	movt	r3, #15
40301578:	eb000321 	bl	40302204 <wait_on_value>
4030157c:	e3a01000 	mov	r1, #0
40301580:	e3a02020 	mov	r2, #32
40301584:	e3a03002 	mov	r3, #2
40301588:	e3070878 	movw	r0, #30840	; 0x7878
4030158c:	e3440a30 	movt	r0, #18992	; 0x4a30
40301590:	eb000311 	bl	403021dc <sr32>
40301594:	e3a01000 	mov	r1, #0
40301598:	e3a00803 	mov	r0, #196608	; 0x30000
4030159c:	e3072878 	movw	r2, #30840	; 0x7878
403015a0:	e3043240 	movw	r3, #16960	; 0x4240
403015a4:	e3442a30 	movt	r2, #18992	; 0x4a30
403015a8:	e340300f 	movt	r3, #15
403015ac:	eb000314 	bl	40302204 <wait_on_value>
403015b0:	ebfffaf7 	bl	40300194 <omap_revision>
403015b4:	e350000f 	cmp	r0, #15
403015b8:	8a0000b9 	bhi	403018a4 <prcm_init+0x10c0>
403015bc:	e3a01000 	mov	r1, #0
403015c0:	e3a02020 	mov	r2, #32
403015c4:	e1a03001 	mov	r3, r1
403015c8:	e3a00c8a 	mov	r0, #35328	; 0x8a00
403015cc:	e3440a00 	movt	r0, #18944	; 0x4a00
403015d0:	eb000301 	bl	403021dc <sr32>
403015d4:	e3a01000 	mov	r1, #0
403015d8:	e3a02020 	mov	r2, #32
403015dc:	e3a03003 	mov	r3, #3
403015e0:	e3a00c8b 	mov	r0, #35584	; 0x8b00
403015e4:	e3440a00 	movt	r0, #18944	; 0x4a00
403015e8:	eb0002fb 	bl	403021dc <sr32>
403015ec:	e3a01000 	mov	r1, #0
403015f0:	e3a02020 	mov	r2, #32
403015f4:	e3a03001 	mov	r3, #1
403015f8:	e3080b30 	movw	r0, #35632	; 0x8b30
403015fc:	e3440a00 	movt	r0, #18944	; 0x4a00
40301600:	eb0002f5 	bl	403021dc <sr32>
40301604:	e3a01000 	mov	r1, #0
40301608:	e3a00803 	mov	r0, #196608	; 0x30000
4030160c:	e3082b30 	movw	r2, #35632	; 0x8b30
40301610:	e3043240 	movw	r3, #16960	; 0x4240
40301614:	e3442a00 	movt	r2, #18944	; 0x4a00
40301618:	e340300f 	movt	r3, #15
4030161c:	eb0002f8 	bl	40302204 <wait_on_value>
40301620:	e3a01000 	mov	r1, #0
40301624:	e3a02020 	mov	r2, #32
40301628:	e3a03001 	mov	r3, #1
4030162c:	e3080b38 	movw	r0, #35640	; 0x8b38
40301630:	e3440a00 	movt	r0, #18944	; 0x4a00
40301634:	eb0002e8 	bl	403021dc <sr32>
40301638:	e3a01000 	mov	r1, #0
4030163c:	e3a00803 	mov	r0, #196608	; 0x30000
40301640:	e3082b38 	movw	r2, #35640	; 0x8b38
40301644:	e3043240 	movw	r3, #16960	; 0x4240
40301648:	e3442a00 	movt	r2, #18944	; 0x4a00
4030164c:	e340300f 	movt	r3, #15
40301650:	eb0002eb 	bl	40302204 <wait_on_value>
40301654:	e3a01000 	mov	r1, #0
40301658:	e3a02020 	mov	r2, #32
4030165c:	e3a03003 	mov	r3, #3
40301660:	e3a00b23 	mov	r0, #35840	; 0x8c00
40301664:	e3440a00 	movt	r0, #18944	; 0x4a00
40301668:	eb0002db 	bl	403021dc <sr32>
4030166c:	e3a01000 	mov	r1, #0
40301670:	e3a02020 	mov	r2, #32
40301674:	e3a03001 	mov	r3, #1
40301678:	e3080828 	movw	r0, #34856	; 0x8828
4030167c:	e3440a00 	movt	r0, #18944	; 0x4a00
40301680:	eb0002d5 	bl	403021dc <sr32>
40301684:	e3a01000 	mov	r1, #0
40301688:	e3a00803 	mov	r0, #196608	; 0x30000
4030168c:	e3082828 	movw	r2, #34856	; 0x8828
40301690:	e3043240 	movw	r3, #16960	; 0x4240
40301694:	e3442a00 	movt	r2, #18944	; 0x4a00
40301698:	e340300f 	movt	r3, #15
4030169c:	eb0002d8 	bl	40302204 <wait_on_value>
403016a0:	e3a01000 	mov	r1, #0
403016a4:	e3a02020 	mov	r2, #32
403016a8:	e3a03001 	mov	r3, #1
403016ac:	e3080e20 	movw	r0, #36384	; 0x8e20
403016b0:	e3440a00 	movt	r0, #18944	; 0x4a00
403016b4:	eb0002c8 	bl	403021dc <sr32>
403016b8:	e3a01000 	mov	r1, #0
403016bc:	e3a00803 	mov	r0, #196608	; 0x30000
403016c0:	e3082e20 	movw	r2, #36384	; 0x8e20
403016c4:	e3043240 	movw	r3, #16960	; 0x4240
403016c8:	e3442a00 	movt	r2, #18944	; 0x4a00
403016cc:	e340300f 	movt	r3, #15
403016d0:	eb0002cb 	bl	40302204 <wait_on_value>
403016d4:	e3a01000 	mov	r1, #0
403016d8:	e3a02020 	mov	r2, #32
403016dc:	e3a03001 	mov	r3, #1
403016e0:	e3080e28 	movw	r0, #36392	; 0x8e28
403016e4:	e3440a00 	movt	r0, #18944	; 0x4a00
403016e8:	eb0002bb 	bl	403021dc <sr32>
403016ec:	e3a01000 	mov	r1, #0
403016f0:	e3a00803 	mov	r0, #196608	; 0x30000
403016f4:	e3082e28 	movw	r2, #36392	; 0x8e28
403016f8:	e3043240 	movw	r3, #16960	; 0x4240
403016fc:	e3442a00 	movt	r2, #18944	; 0x4a00
40301700:	e340300f 	movt	r3, #15
40301704:	eb0002be 	bl	40302204 <wait_on_value>
40301708:	e3a01000 	mov	r1, #0
4030170c:	e3a02020 	mov	r2, #32
40301710:	e3a03001 	mov	r3, #1
40301714:	e3080e40 	movw	r0, #36416	; 0x8e40
40301718:	e3440a00 	movt	r0, #18944	; 0x4a00
4030171c:	eb0002ae 	bl	403021dc <sr32>
40301720:	e3a01000 	mov	r1, #0
40301724:	e3a00803 	mov	r0, #196608	; 0x30000
40301728:	e3082e40 	movw	r2, #36416	; 0x8e40
4030172c:	e3043240 	movw	r3, #16960	; 0x4240
40301730:	e3442a00 	movt	r2, #18944	; 0x4a00
40301734:	e340300f 	movt	r3, #15
40301738:	eb0002b1 	bl	40302204 <wait_on_value>
4030173c:	e3a01000 	mov	r1, #0
40301740:	e3a02020 	mov	r2, #32
40301744:	e3a03002 	mov	r3, #2
40301748:	e3070830 	movw	r0, #30768	; 0x7830
4030174c:	e3440a30 	movt	r0, #18992	; 0x4a30
40301750:	eb0002a1 	bl	403021dc <sr32>
40301754:	e3a01000 	mov	r1, #0
40301758:	e3a00803 	mov	r0, #196608	; 0x30000
4030175c:	e3072830 	movw	r2, #30768	; 0x7830
40301760:	e3043240 	movw	r3, #16960	; 0x4240
40301764:	e3442a30 	movt	r2, #18992	; 0x4a30
40301768:	e340300f 	movt	r3, #15
4030176c:	eb0002a4 	bl	40302204 <wait_on_value>
40301770:	ebfffa87 	bl	40300194 <omap_revision>
40301774:	e3500001 	cmp	r0, #1
40301778:	0a000050 	beq	403018c0 <prcm_init+0x10dc>
4030177c:	e3a02001 	mov	r2, #1
40301780:	e3a01018 	mov	r1, #24
40301784:	e1a03002 	mov	r3, r2
40301788:	e3090220 	movw	r0, #37408	; 0x9220
4030178c:	e3440a00 	movt	r0, #18944	; 0x4a00
40301790:	eb000291 	bl	403021dc <sr32>
40301794:	e3a01000 	mov	r1, #0
40301798:	e3a02020 	mov	r2, #32
4030179c:	e3003301 	movw	r3, #769	; 0x301
403017a0:	e30903e0 	movw	r0, #37856	; 0x93e0
403017a4:	e3440a00 	movt	r0, #18944	; 0x4a00
403017a8:	eb00028b 	bl	403021dc <sr32>
403017ac:	e3a01000 	mov	r1, #0
403017b0:	e3a02020 	mov	r2, #32
403017b4:	e3a03001 	mov	r3, #1
403017b8:	e3090360 	movw	r0, #37728	; 0x9360
403017bc:	e3440a00 	movt	r0, #18944	; 0x4a00
403017c0:	eb000285 	bl	403021dc <sr32>
403017c4:	e3a01000 	mov	r1, #0
403017c8:	e3a02002 	mov	r2, #2
403017cc:	e3a03003 	mov	r3, #3
403017d0:	e3a00c71 	mov	r0, #28928	; 0x7100
403017d4:	e3440a30 	movt	r0, #18992	; 0x4a30
403017d8:	eb00027f 	bl	403021dc <sr32>
403017dc:	e3a02002 	mov	r2, #2
403017e0:	e1a03002 	mov	r3, r2
403017e4:	e3a01000 	mov	r1, #0
403017e8:	e3a00c91 	mov	r0, #37120	; 0x9100
403017ec:	e3440a00 	movt	r0, #18944	; 0x4a00
403017f0:	eb000279 	bl	403021dc <sr32>
403017f4:	e3090120 	movw	r0, #37152	; 0x9120
403017f8:	e3a01000 	mov	r1, #0
403017fc:	e3440a00 	movt	r0, #18944	; 0x4a00
40301800:	e3a0200b 	mov	r2, #11
40301804:	e3003702 	movw	r3, #1794	; 0x702
40301808:	e8bd46f0 	pop	{r4, r5, r6, r7, r9, sl, lr}
4030180c:	ea000272 	b	403021dc <sr32>
40301810:	40303204 	eorsmi	r3, r0, r4, lsl #4
40301814:	4030300c 	eorsmi	r3, r0, ip
40301818:	40303108 	eorsmi	r3, r0, r8, lsl #2
4030181c:	40302f10 	eorsmi	r2, r0, r0, lsl pc
40301820:	e3a06a02 	mov	r6, #8192	; 0x2000
40301824:	e3446a00 	movt	r6, #18944	; 0x4a00
40301828:	e5967268 	ldr	r7, [r6, #616]	; 0x268
4030182c:	e3170702 	tst	r7, #524288	; 0x80000
40301830:	e1a06184 	lsl	r6, r4, #3
40301834:	e0861004 	add	r1, r6, r4
40301838:	e3a02001 	mov	r2, #1
4030183c:	151f7030 	ldrne	r7, [pc, #-48]	; 40301814 <prcm_init+0x1030>
40301840:	e1a03002 	mov	r3, r2
40301844:	051f7034 	ldreq	r7, [pc, #-52]	; 40301818 <prcm_init+0x1034>
40301848:	e3040320 	movw	r0, #17184	; 0x4320
4030184c:	e3440a00 	movt	r0, #18944	; 0x4a00
40301850:	e0875101 	add	r5, r7, r1, lsl #2
40301854:	e3a01018 	mov	r1, #24
40301858:	eb00025f 	bl	403021dc <sr32>
4030185c:	e3a02001 	mov	r2, #1
40301860:	e1a03002 	mov	r3, r2
40301864:	e3a01019 	mov	r1, #25
40301868:	e3040320 	movw	r0, #17184	; 0x4320
4030186c:	e3440a00 	movt	r0, #18944	; 0x4a00
40301870:	eb000259 	bl	403021dc <sr32>
40301874:	e304016c 	movw	r0, #16748	; 0x416c
40301878:	e3a01016 	mov	r1, #22
4030187c:	e3440a00 	movt	r0, #18944	; 0x4a00
40301880:	e3a02001 	mov	r2, #1
40301884:	e3a03000 	mov	r3, #0
40301888:	eb000253 	bl	403021dc <sr32>
4030188c:	eafffbf2 	b	4030085c <prcm_init+0x78>
40301890:	e1a06184 	lsl	r6, r4, #3
40301894:	e51f0080 	ldr	r0, [pc, #-128]	; 4030181c <prcm_init+0x1038>
40301898:	e0865004 	add	r5, r6, r4
4030189c:	e0805105 	add	r5, r0, r5, lsl #2
403018a0:	eafffbed 	b	4030085c <prcm_init+0x78>
403018a4:	e3a02001 	mov	r2, #1
403018a8:	e3070888 	movw	r0, #30856	; 0x7888
403018ac:	e3a01008 	mov	r1, #8
403018b0:	e3440a30 	movt	r0, #18992	; 0x4a30
403018b4:	e1a03002 	mov	r3, r2
403018b8:	eb000247 	bl	403021dc <sr32>
403018bc:	eaffff3e 	b	403015bc <prcm_init+0xdd8>
403018c0:	e3a01000 	mov	r1, #0
403018c4:	e3a02020 	mov	r2, #32
403018c8:	e3a03003 	mov	r3, #3
403018cc:	e3a00a09 	mov	r0, #36864	; 0x9000
403018d0:	e3440a00 	movt	r0, #18944	; 0x4a00
403018d4:	eb000240 	bl	403021dc <sr32>
403018d8:	e3a01000 	mov	r1, #0
403018dc:	e3a02020 	mov	r2, #32
403018e0:	e3003102 	movw	r3, #258	; 0x102
403018e4:	e3090020 	movw	r0, #36896	; 0x9020
403018e8:	e3440a00 	movt	r0, #18944	; 0x4a00
403018ec:	eb00023a 	bl	403021dc <sr32>
403018f0:	e3a01000 	mov	r1, #0
403018f4:	e3a02020 	mov	r2, #32
403018f8:	e3a03002 	mov	r3, #2
403018fc:	e3090028 	movw	r0, #36904	; 0x9028
40301900:	e3440a00 	movt	r0, #18944	; 0x4a00
40301904:	eb000234 	bl	403021dc <sr32>
40301908:	e3a01000 	mov	r1, #0
4030190c:	e3a02020 	mov	r2, #32
40301910:	e1a03001 	mov	r3, r1
40301914:	e3a00a09 	mov	r0, #36864	; 0x9000
40301918:	e3440a00 	movt	r0, #18944	; 0x4a00
4030191c:	eb00022e 	bl	403021dc <sr32>
40301920:	e3a0ca07 	mov	ip, #28672	; 0x7000
40301924:	e344ca30 	movt	ip, #18992	; 0x4a30
40301928:	e3a0e007 	mov	lr, #7
4030192c:	e3a01000 	mov	r1, #0
40301930:	e58ce100 	str	lr, [ip, #256]	; 0x100
40301934:	e3a02020 	mov	r2, #32
40301938:	e3a03002 	mov	r3, #2
4030193c:	e3a00c91 	mov	r0, #37120	; 0x9100
40301940:	e3440a00 	movt	r0, #18944	; 0x4a00
40301944:	eb000224 	bl	403021dc <sr32>
40301948:	e3a01000 	mov	r1, #0
4030194c:	e3a02020 	mov	r2, #32
40301950:	e3003f02 	movw	r3, #3842	; 0xf02
40301954:	e3090120 	movw	r0, #37152	; 0x9120
40301958:	e3440a00 	movt	r0, #18944	; 0x4a00
4030195c:	eb00021e 	bl	403021dc <sr32>
40301960:	e3a02020 	mov	r2, #32
40301964:	e3090128 	movw	r0, #37160	; 0x9128
40301968:	e3a01000 	mov	r1, #0
4030196c:	e3440a00 	movt	r0, #18944	; 0x4a00
40301970:	e3a03002 	mov	r3, #2
40301974:	eb000218 	bl	403021dc <sr32>
40301978:	e3a02a09 	mov	r2, #36864	; 0x9000
4030197c:	e3442a00 	movt	r2, #18944	; 0x4a00
40301980:	e5920100 	ldr	r0, [r2, #256]	; 0x100
40301984:	e2003c0f 	and	r3, r0, #3840	; 0xf00
40301988:	e3530c0e 	cmp	r3, #3584	; 0xe00
4030198c:	1afffffb 	bne	40301980 <prcm_init+0x119c>
40301990:	e3a01000 	mov	r1, #0
40301994:	e3a02020 	mov	r2, #32
40301998:	e3a03003 	mov	r3, #3
4030199c:	e3a00c91 	mov	r0, #37120	; 0x9100
403019a0:	e3440a00 	movt	r0, #18944	; 0x4a00
403019a4:	eb00020c 	bl	403021dc <sr32>
403019a8:	e3a01000 	mov	r1, #0
403019ac:	e3a02020 	mov	r2, #32
403019b0:	e3a03002 	mov	r3, #2
403019b4:	e3a00c92 	mov	r0, #37376	; 0x9200
403019b8:	e3440a00 	movt	r0, #18944	; 0x4a00
403019bc:	eb000206 	bl	403021dc <sr32>
403019c0:	e3a01000 	mov	r1, #0
403019c4:	e3a02020 	mov	r2, #32
403019c8:	e3090220 	movw	r0, #37408	; 0x9220
403019cc:	e3a03002 	mov	r3, #2
403019d0:	e3440a00 	movt	r0, #18944	; 0x4a00
403019d4:	eb000200 	bl	403021dc <sr32>
403019d8:	e3a02a09 	mov	r2, #36864	; 0x9000
403019dc:	e3442a00 	movt	r2, #18944	; 0x4a00
403019e0:	e3001302 	movw	r1, #770	; 0x302
403019e4:	e592c200 	ldr	ip, [r2, #512]	; 0x200
403019e8:	e15c0001 	cmp	ip, r1
403019ec:	1afffffc 	bne	403019e4 <prcm_init+0x1200>
403019f0:	e3a01000 	mov	r1, #0
403019f4:	e3a02020 	mov	r2, #32
403019f8:	e3a03001 	mov	r3, #1
403019fc:	e3090338 	movw	r0, #37688	; 0x9338
40301a00:	e3440a00 	movt	r0, #18944	; 0x4a00
40301a04:	eb0001f4 	bl	403021dc <sr32>
40301a08:	e3a01000 	mov	r1, #0
40301a0c:	e3a02020 	mov	r2, #32
40301a10:	e3a03002 	mov	r3, #2
40301a14:	e3090340 	movw	r0, #37696	; 0x9340
40301a18:	e3440a00 	movt	r0, #18944	; 0x4a00
40301a1c:	eb0001ee 	bl	403021dc <sr32>
40301a20:	e3a01000 	mov	r1, #0
40301a24:	e3a02020 	mov	r2, #32
40301a28:	e3a03002 	mov	r3, #2
40301a2c:	e3090358 	movw	r0, #37720	; 0x9358
40301a30:	e3440a00 	movt	r0, #18944	; 0x4a00
40301a34:	eb0001e8 	bl	403021dc <sr32>
40301a38:	e3a01000 	mov	r1, #0
40301a3c:	e3a02020 	mov	r2, #32
40301a40:	e3a03001 	mov	r3, #1
40301a44:	e3090360 	movw	r0, #37728	; 0x9360
40301a48:	e3440a00 	movt	r0, #18944	; 0x4a00
40301a4c:	eb0001e2 	bl	403021dc <sr32>
40301a50:	e3a01000 	mov	r1, #0
40301a54:	e3a02020 	mov	r2, #32
40301a58:	e3a03001 	mov	r3, #1
40301a5c:	e3090368 	movw	r0, #37736	; 0x9368
40301a60:	e3440a00 	movt	r0, #18944	; 0x4a00
40301a64:	eb0001dc 	bl	403021dc <sr32>
40301a68:	e3a01000 	mov	r1, #0
40301a6c:	e3a02020 	mov	r2, #32
40301a70:	e3a03002 	mov	r3, #2
40301a74:	e30903d0 	movw	r0, #37840	; 0x93d0
40301a78:	e3440a00 	movt	r0, #18944	; 0x4a00
40301a7c:	eb0001d6 	bl	403021dc <sr32>
40301a80:	e30903e0 	movw	r0, #37856	; 0x93e0
40301a84:	e3a01000 	mov	r1, #0
40301a88:	e3440a00 	movt	r0, #18944	; 0x4a00
40301a8c:	e3a02020 	mov	r2, #32
40301a90:	e3003301 	movw	r3, #769	; 0x301
40301a94:	eb0001d0 	bl	403021dc <sr32>
40301a98:	eaffff37 	b	4030177c <prcm_init+0xf98>
40301a9c:	e1a03000 	mov	r3, r0
40301aa0:	e3a01000 	mov	r1, #0
40301aa4:	e3a02020 	mov	r2, #32
40301aa8:	e3080920 	movw	r0, #35104	; 0x8920
40301aac:	e3440a00 	movt	r0, #18944	; 0x4a00
40301ab0:	eb0001c9 	bl	403021dc <sr32>
40301ab4:	e3a01000 	mov	r1, #0
40301ab8:	e3a02020 	mov	r2, #32
40301abc:	e3a03002 	mov	r3, #2
40301ac0:	e3a00c89 	mov	r0, #35072	; 0x8900
40301ac4:	e3440a00 	movt	r0, #18944	; 0x4a00
40301ac8:	eb0001c3 	bl	403021dc <sr32>
40301acc:	e3a00c01 	mov	r0, #256	; 0x100
40301ad0:	e1a01000 	mov	r1, r0
40301ad4:	e3a02c89 	mov	r2, #35072	; 0x8900
40301ad8:	e3043240 	movw	r3, #16960	; 0x4240
40301adc:	e3442a00 	movt	r2, #18944	; 0x4a00
40301ae0:	e340300f 	movt	r3, #15
40301ae4:	eb0001c6 	bl	40302204 <wait_on_value>
40301ae8:	e1a03004 	mov	r3, r4
40301aec:	e3a01000 	mov	r1, #0
40301af0:	e3a02020 	mov	r2, #32
40301af4:	e3080f20 	movw	r0, #36640	; 0x8f20
40301af8:	e3440a00 	movt	r0, #18944	; 0x4a00
40301afc:	eb0001b6 	bl	403021dc <sr32>
40301b00:	e1a03004 	mov	r3, r4
40301b04:	e3a01000 	mov	r1, #0
40301b08:	e3a02020 	mov	r2, #32
40301b0c:	e3080f28 	movw	r0, #36648	; 0x8f28
40301b10:	e3440a00 	movt	r0, #18944	; 0x4a00
40301b14:	eb0001b0 	bl	403021dc <sr32>
40301b18:	e3a01000 	mov	r1, #0
40301b1c:	e3a02020 	mov	r2, #32
40301b20:	e3a03002 	mov	r3, #2
40301b24:	e3a00c8f 	mov	r0, #36608	; 0x8f00
40301b28:	e3440a00 	movt	r0, #18944	; 0x4a00
40301b2c:	eb0001aa 	bl	403021dc <sr32>
40301b30:	e3a00c01 	mov	r0, #256	; 0x100
40301b34:	e1a01000 	mov	r1, r0
40301b38:	e3a02c8f 	mov	r2, #36608	; 0x8f00
40301b3c:	e3043240 	movw	r3, #16960	; 0x4240
40301b40:	e3442a00 	movt	r2, #18944	; 0x4a00
40301b44:	e340300f 	movt	r3, #15
40301b48:	eb0001ad 	bl	40302204 <wait_on_value>
40301b4c:	e1a03004 	mov	r3, r4
40301b50:	e3a01000 	mov	r1, #0
40301b54:	e3a02020 	mov	r2, #32
40301b58:	e3040420 	movw	r0, #17440	; 0x4420
40301b5c:	e3440a00 	movt	r0, #18944	; 0x4a00
40301b60:	eb00019d 	bl	403021dc <sr32>
40301b64:	e3a01000 	mov	r1, #0
40301b68:	e3a02020 	mov	r2, #32
40301b6c:	e3a03002 	mov	r3, #2
40301b70:	e3a00b11 	mov	r0, #17408	; 0x4400
40301b74:	e3440a00 	movt	r0, #18944	; 0x4a00
40301b78:	eb000197 	bl	403021dc <sr32>
40301b7c:	e3a00c01 	mov	r0, #256	; 0x100
40301b80:	e1a01000 	mov	r1, r0
40301b84:	e3a02b11 	mov	r2, #17408	; 0x4400
40301b88:	e3043240 	movw	r3, #16960	; 0x4240
40301b8c:	e3442a00 	movt	r2, #18944	; 0x4a00
40301b90:	e340300f 	movt	r3, #15
40301b94:	eb00019a 	bl	40302204 <wait_on_value>
40301b98:	e3a01000 	mov	r1, #0
40301b9c:	e3a02020 	mov	r2, #32
40301ba0:	e3a03003 	mov	r3, #3
40301ba4:	e3a00c45 	mov	r0, #17664	; 0x4500
40301ba8:	e3440a00 	movt	r0, #18944	; 0x4a00
40301bac:	eb00018a 	bl	403021dc <sr32>
40301bb0:	e3a01000 	mov	r1, #0
40301bb4:	e3a02020 	mov	r2, #32
40301bb8:	e3a03002 	mov	r3, #2
40301bbc:	e3040528 	movw	r0, #17704	; 0x4528
40301bc0:	e3440a00 	movt	r0, #18944	; 0x4a00
40301bc4:	eb000184 	bl	403021dc <sr32>
40301bc8:	e3a01000 	mov	r1, #0
40301bcc:	e3a02020 	mov	r2, #32
40301bd0:	e3a03002 	mov	r3, #2
40301bd4:	e3040530 	movw	r0, #17712	; 0x4530
40301bd8:	e3440a00 	movt	r0, #18944	; 0x4a00
40301bdc:	eb00017e 	bl	403021dc <sr32>
40301be0:	e3a01000 	mov	r1, #0
40301be4:	e3a02020 	mov	r2, #32
40301be8:	e3a03002 	mov	r3, #2
40301bec:	e3040538 	movw	r0, #17720	; 0x4538
40301bf0:	e3440a00 	movt	r0, #18944	; 0x4a00
40301bf4:	eb000178 	bl	403021dc <sr32>
40301bf8:	e3a01000 	mov	r1, #0
40301bfc:	e3a02020 	mov	r2, #32
40301c00:	e3a03002 	mov	r3, #2
40301c04:	e3040540 	movw	r0, #17728	; 0x4540
40301c08:	e3440a00 	movt	r0, #18944	; 0x4a00
40301c0c:	eb000172 	bl	403021dc <sr32>
40301c10:	e3a01000 	mov	r1, #0
40301c14:	e3a02020 	mov	r2, #32
40301c18:	e3a03382 	mov	r3, #134217730	; 0x8000002
40301c1c:	e3040548 	movw	r0, #17736	; 0x4548
40301c20:	e3440a00 	movt	r0, #18944	; 0x4a00
40301c24:	eb00016c 	bl	403021dc <sr32>
40301c28:	e3a01000 	mov	r1, #0
40301c2c:	e3a02020 	mov	r2, #32
40301c30:	e3a03382 	mov	r3, #134217730	; 0x8000002
40301c34:	e3040550 	movw	r0, #17744	; 0x4550
40301c38:	e3440a00 	movt	r0, #18944	; 0x4a00
40301c3c:	eb000166 	bl	403021dc <sr32>
40301c40:	e3a01000 	mov	r1, #0
40301c44:	e3a02020 	mov	r2, #32
40301c48:	e3a03382 	mov	r3, #134217730	; 0x8000002
40301c4c:	e3040558 	movw	r0, #17752	; 0x4558
40301c50:	e3440a00 	movt	r0, #18944	; 0x4a00
40301c54:	eb000160 	bl	403021dc <sr32>
40301c58:	e3a01000 	mov	r1, #0
40301c5c:	e3a02020 	mov	r2, #32
40301c60:	e3003f02 	movw	r3, #3842	; 0xf02
40301c64:	e3040560 	movw	r0, #17760	; 0x4560
40301c68:	e3440a00 	movt	r0, #18944	; 0x4a00
40301c6c:	eb00015a 	bl	403021dc <sr32>
40301c70:	e3a01000 	mov	r1, #0
40301c74:	e3a02020 	mov	r2, #32
40301c78:	e3a03002 	mov	r3, #2
40301c7c:	e3040568 	movw	r0, #17768	; 0x4568
40301c80:	e3440a00 	movt	r0, #18944	; 0x4a00
40301c84:	eb000154 	bl	403021dc <sr32>
40301c88:	e3a01000 	mov	r1, #0
40301c8c:	e3a02020 	mov	r2, #32
40301c90:	e3a03002 	mov	r3, #2
40301c94:	e3040570 	movw	r0, #17776	; 0x4570
40301c98:	e3440a00 	movt	r0, #18944	; 0x4a00
40301c9c:	eb00014e 	bl	403021dc <sr32>
40301ca0:	e3a01000 	mov	r1, #0
40301ca4:	e3a02020 	mov	r2, #32
40301ca8:	e3a03002 	mov	r3, #2
40301cac:	e3040578 	movw	r0, #17784	; 0x4578
40301cb0:	e3440a00 	movt	r0, #18944	; 0x4a00
40301cb4:	eb000148 	bl	403021dc <sr32>
40301cb8:	e3a01000 	mov	r1, #0
40301cbc:	e3a02020 	mov	r2, #32
40301cc0:	e3a03002 	mov	r3, #2
40301cc4:	e3040580 	movw	r0, #17792	; 0x4580
40301cc8:	e3440a00 	movt	r0, #18944	; 0x4a00
40301ccc:	eb000142 	bl	403021dc <sr32>
40301cd0:	e3a01000 	mov	r1, #0
40301cd4:	e3a02020 	mov	r2, #32
40301cd8:	e3a03002 	mov	r3, #2
40301cdc:	e3040588 	movw	r0, #17800	; 0x4588
40301ce0:	e3440a00 	movt	r0, #18944	; 0x4a00
40301ce4:	eb00013c 	bl	403021dc <sr32>
40301ce8:	e3a01000 	mov	r1, #0
40301cec:	e3a00c45 	mov	r0, #17664	; 0x4500
40301cf0:	e3a02020 	mov	r2, #32
40301cf4:	e3440a00 	movt	r0, #18944	; 0x4a00
40301cf8:	e1a03001 	mov	r3, r1
40301cfc:	eb000136 	bl	403021dc <sr32>
40301d00:	eafffc79 	b	40300eec <prcm_init+0x708>

40301d04 <do_ddr_init>:
40301d04:	e92d44f0 	push	{r4, r5, r6, r7, sl, lr}
40301d08:	e1a0a000 	mov	sl, r0
40301d0c:	e1a07001 	mov	r7, r1
40301d10:	ebfff91f 	bl	40300194 <omap_revision>
40301d14:	e3500001 	cmp	r0, #1
40301d18:	0a000051 	beq	40301e64 <do_ddr_init+0x160>
40301d1c:	e3500002 	cmp	r0, #2
40301d20:	0a000067 	beq	40301ec4 <do_ddr_init+0x1c0>
40301d24:	8a000037 	bhi	40301e08 <do_ddr_init+0x104>
40301d28:	ebfff9d4 	bl	40300480 <configure_core_dpll_no_lock>
40301d2c:	e3a05313 	mov	r5, #1275068416	; 0x4c000000
40301d30:	e3a06000 	mov	r6, #0
40301d34:	e5856038 	str	r6, [r5, #56]	; 0x38
40301d38:	e3a0444d 	mov	r4, #1291845632	; 0x4d000000
40301d3c:	e1a00005 	mov	r0, r5
40301d40:	e1a0100a 	mov	r1, sl
40301d44:	e5846038 	str	r6, [r4, #56]	; 0x38
40301d48:	eb0000c4 	bl	40302060 <emif_config>
40301d4c:	e1a00004 	mov	r0, r4
40301d50:	e1a01007 	mov	r1, r7
40301d54:	eb0000c1 	bl	40302060 <emif_config>
40301d58:	ebfffa5d 	bl	403006d4 <lock_core_dpll_shadow>
40301d5c:	e3a01901 	mov	r1, #16384	; 0x4000
40301d60:	e3441a00 	movt	r1, #18944	; 0x4a00
40301d64:	e3a000c8 	mov	r0, #200	; 0xc8
40301d68:	e5816110 	str	r6, [r1, #272]	; 0x110
40301d6c:	e2500001 	subs	r0, r0, #1
40301d70:	1afffffd 	bne	40301d6c <do_ddr_init+0x68>
40301d74:	e1a02005 	mov	r2, r5
40301d78:	e1a01004 	mov	r1, r4
40301d7c:	e5923004 	ldr	r3, [r2, #4]
40301d80:	e3a04313 	mov	r4, #1275068416	; 0x4c000000
40301d84:	e3130004 	tst	r3, #4
40301d88:	0afffffb 	beq	40301d7c <do_ddr_init+0x78>
40301d8c:	e3a0544d 	mov	r5, #1291845632	; 0x4d000000
40301d90:	e591c004 	ldr	ip, [r1, #4]
40301d94:	e31c0004 	tst	ip, #4
40301d98:	0afffff7 	beq	40301d7c <do_ddr_init+0x78>
40301d9c:	e3a01000 	mov	r1, #0
40301da0:	e3a02020 	mov	r2, #32
40301da4:	e3a03001 	mov	r3, #1
40301da8:	e3080b30 	movw	r0, #35632	; 0x8b30
40301dac:	e3440a00 	movt	r0, #18944	; 0x4a00
40301db0:	eb000109 	bl	403021dc <sr32>
40301db4:	e3a01000 	mov	r1, #0
40301db8:	e3a02020 	mov	r2, #32
40301dbc:	e3a03001 	mov	r3, #1
40301dc0:	e3080b38 	movw	r0, #35640	; 0x8b38
40301dc4:	e3440a00 	movt	r0, #18944	; 0x4a00
40301dc8:	eb000103 	bl	403021dc <sr32>
40301dcc:	e3a00102 	mov	r0, #-2147483648	; 0x80000000
40301dd0:	e5840038 	str	r0, [r4, #56]	; 0x38
40301dd4:	e5850038 	str	r0, [r5, #56]	; 0x38
40301dd8:	ebfff8ed 	bl	40300194 <omap_revision>
40301ddc:	e350000f 	cmp	r0, #15
40301de0:	93a020ff 	movls	r2, #255	; 0xff
40301de4:	83a026a3 	movhi	r2, #170917888	; 0xa300000
40301de8:	93402a00 	movtls	r2, #2560	; 0xa00
40301dec:	e5842054 	str	r2, [r4, #84]	; 0x54
40301df0:	e3a00313 	mov	r0, #1275068416	; 0x4c000000
40301df4:	e5852054 	str	r2, [r5, #84]	; 0x54
40301df8:	eb000094 	bl	40302050 <reset_phy>
40301dfc:	e3a0044d 	mov	r0, #1291845632	; 0x4d000000
40301e00:	e8bd44f0 	pop	{r4, r5, r6, r7, sl, lr}
40301e04:	ea000091 	b	40302050 <reset_phy>
40301e08:	e3a03000 	mov	r3, #0
40301e0c:	e3443a10 	movt	r3, #18960	; 0x4a10
40301e10:	e3072c7c 	movw	r2, #31868	; 0x7c7c
40301e14:	e7df2812 	bfi	r2, r2, #16, #16
40301e18:	e5832638 	str	r2, [r3, #1592]	; 0x638
40301e1c:	e307ec7c 	movw	lr, #31868	; 0x7c7c
40301e20:	e7dfe81e 	bfi	lr, lr, #16, #16
40301e24:	e583e63c 	str	lr, [r3, #1596]	; 0x63c
40301e28:	e3a05b1f 	mov	r5, #31744	; 0x7c00
40301e2c:	e3475c78 	movt	r5, #31864	; 0x7c78
40301e30:	e5835640 	str	r5, [r3, #1600]	; 0x640
40301e34:	e307cc7c 	movw	ip, #31868	; 0x7c7c
40301e38:	e7dfc81c 	bfi	ip, ip, #16, #16
40301e3c:	e583c648 	str	ip, [r3, #1608]	; 0x648
40301e40:	e3076c7c 	movw	r6, #31868	; 0x7c7c
40301e44:	e7df6816 	bfi	r6, r6, #16, #16
40301e48:	e583664c 	str	r6, [r3, #1612]	; 0x64c
40301e4c:	e5835650 	str	r5, [r3, #1616]	; 0x650
40301e50:	e30b4c03 	movw	r4, #48131	; 0xbc03
40301e54:	e34a4388 	movt	r4, #41864	; 0xa388
40301e58:	e5834644 	str	r4, [r3, #1604]	; 0x644
40301e5c:	e5834654 	str	r4, [r3, #1620]	; 0x654
40301e60:	eaffffb0 	b	40301d28 <do_ddr_init+0x24>
40301e64:	e3a03000 	mov	r3, #0
40301e68:	e3443a10 	movt	r3, #18960	; 0x4a10
40301e6c:	e3015c1c 	movw	r5, #7196	; 0x1c1c
40301e70:	e7df5815 	bfi	r5, r5, #16, #16
40301e74:	e5835638 	str	r5, [r3, #1592]	; 0x638
40301e78:	e3014c1c 	movw	r4, #7196	; 0x1c1c
40301e7c:	e7df4814 	bfi	r4, r4, #16, #16
40301e80:	e583463c 	str	r4, [r3, #1596]	; 0x63c
40301e84:	e3011c1c 	movw	r1, #7196	; 0x1c1c
40301e88:	e7df1811 	bfi	r1, r1, #16, #16
40301e8c:	e5831640 	str	r1, [r3, #1600]	; 0x640
40301e90:	e3010c1c 	movw	r0, #7196	; 0x1c1c
40301e94:	e7df0810 	bfi	r0, r0, #16, #16
40301e98:	e5830648 	str	r0, [r3, #1608]	; 0x648
40301e9c:	e3012c1c 	movw	r2, #7196	; 0x1c1c
40301ea0:	e7df2812 	bfi	r2, r2, #16, #16
40301ea4:	e583264c 	str	r2, [r3, #1612]	; 0x64c
40301ea8:	e3012c1c 	movw	r2, #7196	; 0x1c1c
40301eac:	e7df2812 	bfi	r2, r2, #16, #16
40301eb0:	e5832650 	str	r2, [r3, #1616]	; 0x650
40301eb4:	e3a01903 	mov	r1, #49152	; 0xc000
40301eb8:	e34010ff 	movt	r1, #255	; 0xff
40301ebc:	e5831704 	str	r1, [r3, #1796]	; 0x704
40301ec0:	eaffff98 	b	40301d28 <do_ddr_init+0x24>
40301ec4:	e3a03000 	mov	r3, #0
40301ec8:	e3443a10 	movt	r3, #18960	; 0x4a10
40301ecc:	e3090e9e 	movw	r0, #40606	; 0x9e9e
40301ed0:	e7df0810 	bfi	r0, r0, #16, #16
40301ed4:	e5830638 	str	r0, [r3, #1592]	; 0x638
40301ed8:	e3092e9e 	movw	r2, #40606	; 0x9e9e
40301edc:	e7df2812 	bfi	r2, r2, #16, #16
40301ee0:	e583263c 	str	r2, [r3, #1596]	; 0x63c
40301ee4:	e309ee9e 	movw	lr, #40606	; 0x9e9e
40301ee8:	e7dfe81e 	bfi	lr, lr, #16, #16
40301eec:	e583e640 	str	lr, [r3, #1600]	; 0x640
40301ef0:	e309ce9e 	movw	ip, #40606	; 0x9e9e
40301ef4:	e7dfc81c 	bfi	ip, ip, #16, #16
40301ef8:	e583c648 	str	ip, [r3, #1608]	; 0x648
40301efc:	e3096e9e 	movw	r6, #40606	; 0x9e9e
40301f00:	e7df6816 	bfi	r6, r6, #16, #16
40301f04:	e583664c 	str	r6, [r3, #1612]	; 0x64c
40301f08:	e3092e9e 	movw	r2, #40606	; 0x9e9e
40301f0c:	eaffffe6 	b	40301eac <do_ddr_init+0x1a8>

40301f10 <ddr_init>:
40301f10:	e92d4010 	push	{r4, lr}
40301f14:	ebfff89e 	bl	40300194 <omap_revision>
40301f18:	e3500001 	cmp	r0, #1
40301f1c:	e1a04000 	mov	r4, r0
40301f20:	030308e8 	movweq	r0, #14568	; 0x38e8
40301f24:	03440030 	movteq	r0, #16432	; 0x4030
40301f28:	0a000006 	beq	40301f48 <ddr_init+0x38>
40301f2c:	e3500002 	cmp	r0, #2
40301f30:	059f010c 	ldreq	r0, [pc, #268]	; 40302044 <ddr_init+0x134>
40301f34:	0a000003 	beq	40301f48 <ddr_init+0x38>
40301f38:	e2403003 	sub	r3, r0, #3
40301f3c:	e353001c 	cmp	r3, #28
40301f40:	959f0100 	ldrls	r0, [pc, #256]	; 40302048 <ddr_init+0x138>
40301f44:	8a000034 	bhi	4030201c <ddr_init+0x10c>
40301f48:	e3a0344e 	mov	r3, #1308622848	; 0x4e000000
40301f4c:	e3a0c000 	mov	ip, #0
40301f50:	e583c04c 	str	ip, [r3, #76]	; 0x4c
40301f54:	e583c048 	str	ip, [r3, #72]	; 0x48
40301f58:	e583c044 	str	ip, [r3, #68]	; 0x44
40301f5c:	e583c040 	str	ip, [r3, #64]	; 0x40
40301f60:	e3a02c03 	mov	r2, #768	; 0x300
40301f64:	e3482064 	movt	r2, #32868	; 0x8064
40301f68:	e583204c 	str	r2, [r3, #76]	; 0x4c
40301f6c:	e583c048 	str	ip, [r3, #72]	; 0x48
40301f70:	e583c044 	str	ip, [r3, #68]	; 0x44
40301f74:	e3a01c01 	mov	r1, #256	; 0x100
40301f78:	e3540001 	cmp	r4, #1
40301f7c:	e34f1f02 	movt	r1, #65282	; 0xff02
40301f80:	e5831040 	str	r1, [r3, #64]	; 0x40
40301f84:	0a000028 	beq	4030202c <ddr_init+0x11c>
40301f88:	e354000f 	cmp	r4, #15
40301f8c:	8a000003 	bhi	40301fa0 <ddr_init+0x90>
40301f90:	e583204c 	str	r2, [r3, #76]	; 0x4c
40301f94:	e1a01000 	mov	r1, r0
40301f98:	e8bd4010 	pop	{r4, lr}
40301f9c:	eaffff58 	b	40301d04 <do_ddr_init>
40301fa0:	e3a0ea0f 	mov	lr, #61440	; 0xf000
40301fa4:	e344e82a 	movt	lr, #18474	; 0x482a
40301fa8:	e58e204c 	str	r2, [lr, #76]	; 0x4c
40301fac:	e58ec048 	str	ip, [lr, #72]	; 0x48
40301fb0:	e58ec044 	str	ip, [lr, #68]	; 0x44
40301fb4:	e58e1040 	str	r1, [lr, #64]	; 0x40
40301fb8:	e1a01000 	mov	r1, r0
40301fbc:	ebffff50 	bl	40301d04 <do_ddr_init>
40301fc0:	e3a03000 	mov	r3, #0
40301fc4:	e3443a10 	movt	r3, #18960	; 0x4a10
40301fc8:	e3091c9c 	movw	r1, #40092	; 0x9c9c
40301fcc:	e7df1811 	bfi	r1, r1, #16, #16
40301fd0:	e5831638 	str	r1, [r3, #1592]	; 0x638
40301fd4:	e309cc9c 	movw	ip, #40092	; 0x9c9c
40301fd8:	e7dfc81c 	bfi	ip, ip, #16, #16
40301fdc:	e583c63c 	str	ip, [r3, #1596]	; 0x63c
40301fe0:	e3a01b27 	mov	r1, #39936	; 0x9c00
40301fe4:	e3491c98 	movt	r1, #40088	; 0x9c98
40301fe8:	e5831640 	str	r1, [r3, #1600]	; 0x640
40301fec:	e308cc03 	movw	ip, #35843	; 0x8c03
40301ff0:	e34ac088 	movt	ip, #41096	; 0xa088
40301ff4:	e583c644 	str	ip, [r3, #1604]	; 0x644
40301ff8:	e3092c9c 	movw	r2, #40092	; 0x9c9c
40301ffc:	e7df2812 	bfi	r2, r2, #16, #16
40302000:	e5832648 	str	r2, [r3, #1608]	; 0x648
40302004:	e3090c9c 	movw	r0, #40092	; 0x9c9c
40302008:	e7df0810 	bfi	r0, r0, #16, #16
4030200c:	e583064c 	str	r0, [r3, #1612]	; 0x64c
40302010:	e5831650 	str	r1, [r3, #1616]	; 0x650
40302014:	e583c654 	str	ip, [r3, #1620]	; 0x654
40302018:	e8bd8010 	pop	{r4, pc}
4030201c:	e354001f 	cmp	r4, #31
40302020:	e59f0024 	ldr	r0, [pc, #36]	; 4030204c <ddr_init+0x13c>
40302024:	93a00000 	movls	r0, #0
40302028:	eaffffc6 	b	40301f48 <ddr_init+0x38>
4030202c:	e3a02c03 	mov	r2, #768	; 0x300
40302030:	e1a01000 	mov	r1, r0
40302034:	e3482054 	movt	r2, #32852	; 0x8054
40302038:	e583204c 	str	r2, [r3, #76]	; 0x4c
4030203c:	e8bd4010 	pop	{r4, lr}
40302040:	eaffff2f 	b	40301d04 <do_ddr_init>
40302044:	4030390c 	eorsmi	r3, r0, ip, lsl #18
40302048:	40303930 	eorsmi	r3, r0, r0, lsr r9
4030204c:	40303954 	eorsmi	r3, r0, r4, asr r9

40302050 <reset_phy>:
40302050:	e5901060 	ldr	r1, [r0, #96]	; 0x60
40302054:	e3813b01 	orr	r3, r1, #1024	; 0x400
40302058:	e5803060 	str	r3, [r0, #96]	; 0x60
4030205c:	e12fff1e 	bx	lr

40302060 <emif_config>:
40302060:	e92d4030 	push	{r4, r5, lr}
40302064:	e1a04000 	mov	r4, r0
40302068:	e1a05001 	mov	r5, r1
4030206c:	ebfff848 	bl	40300194 <omap_revision>
40302070:	e594100c 	ldr	r1, [r4, #12]
40302074:	e3c10101 	bic	r0, r1, #1073741824	; 0x40000000
40302078:	e584000c 	str	r0, [r4, #12]
4030207c:	e5953014 	ldr	r3, [r5, #20]
40302080:	e5843008 	str	r3, [r4, #8]
40302084:	e30fcff5 	movw	ip, #65525	; 0xfff5
40302088:	e348c49f 	movt	ip, #33951	; 0x849f
4030208c:	e584c0e4 	str	ip, [r4, #228]	; 0xe4
40302090:	e595200c 	ldr	r2, [r5, #12]
40302094:	e58420e8 	str	r2, [r4, #232]	; 0xe8
40302098:	e30011ff 	movw	r1, #511	; 0x1ff
4030209c:	e3401005 	movt	r1, #5
403020a0:	e5841098 	str	r1, [r4, #152]	; 0x98
403020a4:	e584109c 	str	r1, [r4, #156]	; 0x9c
403020a8:	e5950000 	ldr	r0, [r5]
403020ac:	e5840018 	str	r0, [r4, #24]
403020b0:	e5953000 	ldr	r3, [r5]
403020b4:	e584301c 	str	r3, [r4, #28]
403020b8:	e595c004 	ldr	ip, [r5, #4]
403020bc:	e584c020 	str	ip, [r4, #32]
403020c0:	e5952004 	ldr	r2, [r5, #4]
403020c4:	e5842024 	str	r2, [r4, #36]	; 0x24
403020c8:	e5951008 	ldr	r1, [r5, #8]
403020cc:	e5841028 	str	r1, [r4, #40]	; 0x28
403020d0:	e5950008 	ldr	r0, [r5, #8]
403020d4:	e584002c 	str	r0, [r4, #44]	; 0x2c
403020d8:	e2842040 	add	r2, r4, #64	; 0x40
403020dc:	e3a03000 	mov	r3, #0
403020e0:	e5843050 	str	r3, [r4, #80]	; 0x50
403020e4:	e592e000 	ldr	lr, [r2]
403020e8:	e31e0001 	tst	lr, #1
403020ec:	1afffffc 	bne	403020e4 <emif_config+0x84>
403020f0:	e3a0c102 	mov	ip, #-2147483648	; 0x80000000
403020f4:	e584c050 	str	ip, [r4, #80]	; 0x50
403020f8:	e5923000 	ldr	r3, [r2]
403020fc:	e2133001 	ands	r3, r3, #1
40302100:	1afffffc 	bne	403020f8 <emif_config+0x98>
40302104:	e3a0c00a 	mov	ip, #10
40302108:	e584c050 	str	ip, [r4, #80]	; 0x50
4030210c:	e3a02e7d 	mov	r2, #2000	; 0x7d0
40302110:	e3a010ff 	mov	r1, #255	; 0xff
40302114:	e1a0e002 	mov	lr, r2
40302118:	e5841040 	str	r1, [r4, #64]	; 0x40
4030211c:	e25ee001 	subs	lr, lr, #1
40302120:	1afffffd 	bne	4030211c <emif_config+0xbc>
40302124:	e3a0012a 	mov	r0, #-2147483638	; 0x8000000a
40302128:	e5840050 	str	r0, [r4, #80]	; 0x50
4030212c:	e5841040 	str	r1, [r4, #64]	; 0x40
40302130:	e2522001 	subs	r2, r2, #1
40302134:	1afffffd 	bne	40302130 <emif_config+0xd0>
40302138:	e595c01c 	ldr	ip, [r5, #28]
4030213c:	e584c0c8 	str	ip, [r4, #200]	; 0xc8
40302140:	e3a0e001 	mov	lr, #1
40302144:	e584e050 	str	lr, [r4, #80]	; 0x50
40302148:	e5d51020 	ldrb	r1, [r5, #32]
4030214c:	e5841040 	str	r1, [r4, #64]	; 0x40
40302150:	e3a00106 	mov	r0, #-2147483647	; 0x80000001
40302154:	e5840050 	str	r0, [r4, #80]	; 0x50
40302158:	e5d52020 	ldrb	r2, [r5, #32]
4030215c:	e5842040 	str	r2, [r4, #64]	; 0x40
40302160:	e3a0c002 	mov	ip, #2
40302164:	e584c050 	str	ip, [r4, #80]	; 0x50
40302168:	e5d5e021 	ldrb	lr, [r5, #33]	; 0x21
4030216c:	e584e040 	str	lr, [r4, #64]	; 0x40
40302170:	e3a0110a 	mov	r1, #-2147483646	; 0x80000002
40302174:	e5841050 	str	r1, [r4, #80]	; 0x50
40302178:	e5d50021 	ldrb	r0, [r5, #33]	; 0x21
4030217c:	e5840040 	str	r0, [r4, #64]	; 0x40
40302180:	e5952018 	ldr	r2, [r5, #24]
40302184:	e5842008 	str	r2, [r4, #8]
40302188:	e595c00c 	ldr	ip, [r5, #12]
4030218c:	e584c0e4 	str	ip, [r4, #228]	; 0xe4
40302190:	e595e010 	ldr	lr, [r5, #16]
40302194:	e584e010 	str	lr, [r4, #16]
40302198:	e5951010 	ldr	r1, [r5, #16]
4030219c:	e5841014 	str	r1, [r4, #20]
403021a0:	e3a00141 	mov	r0, #1073741840	; 0x40000010
403021a4:	e5840050 	str	r0, [r4, #80]	; 0x50
403021a8:	e5843040 	str	r3, [r4, #64]	; 0x40
403021ac:	e3a02143 	mov	r2, #-1073741808	; 0xc0000010
403021b0:	e5842050 	str	r2, [r4, #80]	; 0x50
403021b4:	e5843040 	str	r3, [r4, #64]	; 0x40
403021b8:	e8bd8030 	pop	{r4, r5, pc}

403021bc <omap_smc_rom>:
403021bc:	e92d4ff0 	push	{r4, r5, r6, r7, r8, r9, sl, fp, lr}
403021c0:	e1a0c000 	mov	ip, r0
403021c4:	e1a00001 	mov	r0, r1
403021c8:	f57ff04f 	dsb	sy
403021cc:	f57ff06f 	isb	sy
403021d0:	f57ff05f 	dmb	sy
403021d4:	e1600070 	smc	0
403021d8:	e8bd8ff0 	pop	{r4, r5, r6, r7, r8, r9, sl, fp, pc}

403021dc <sr32>:
403021dc:	e52d4004 	push	{r4}		; (str r4, [sp, #-4]!)
403021e0:	e3a04001 	mov	r4, #1
403021e4:	e590c000 	ldr	ip, [r0]
403021e8:	e1a04214 	lsl	r4, r4, r2
403021ec:	e2444001 	sub	r4, r4, #1
403021f0:	e1ccc114 	bic	ip, ip, r4, lsl r1
403021f4:	e18c1113 	orr	r1, ip, r3, lsl r1
403021f8:	e5801000 	str	r1, [r0]
403021fc:	e8bd0010 	pop	{r4}
40302200:	e12fff1e 	bx	lr

40302204 <wait_on_value>:
40302204:	e243c001 	sub	ip, r3, #1
40302208:	e52d4004 	push	{r4}		; (str r4, [sp, #-4]!)
4030220c:	e20cc001 	and	ip, ip, #1
40302210:	e5924000 	ldr	r4, [r2]
40302214:	e0044000 	and	r4, r4, r0
40302218:	e1540001 	cmp	r4, r1
4030221c:	0a000018 	beq	40302284 <wait_on_value+0x80>
40302220:	e3a04001 	mov	r4, #1
40302224:	e1540003 	cmp	r4, r3
40302228:	0a000018 	beq	40302290 <wait_on_value+0x8c>
4030222c:	e35c0000 	cmp	ip, #0
40302230:	0a00000e 	beq	40302270 <wait_on_value+0x6c>
40302234:	e592c000 	ldr	ip, [r2]
40302238:	e00cc000 	and	ip, ip, r0
4030223c:	e15c0001 	cmp	ip, r1
40302240:	0a00000f 	beq	40302284 <wait_on_value+0x80>
40302244:	e3a04002 	mov	r4, #2
40302248:	e1540003 	cmp	r4, r3
4030224c:	1a000007 	bne	40302270 <wait_on_value+0x6c>
40302250:	ea00000e 	b	40302290 <wait_on_value+0x8c>
40302254:	e592c000 	ldr	ip, [r2]
40302258:	e00cc000 	and	ip, ip, r0
4030225c:	e2844001 	add	r4, r4, #1
40302260:	e15c0001 	cmp	ip, r1
40302264:	0a000006 	beq	40302284 <wait_on_value+0x80>
40302268:	e1540003 	cmp	r4, r3
4030226c:	0a000007 	beq	40302290 <wait_on_value+0x8c>
40302270:	e592c000 	ldr	ip, [r2]
40302274:	e00cc000 	and	ip, ip, r0
40302278:	e2844001 	add	r4, r4, #1
4030227c:	e15c0001 	cmp	ip, r1
40302280:	1afffff3 	bne	40302254 <wait_on_value+0x50>
40302284:	e3a00001 	mov	r0, #1
40302288:	e8bd0010 	pop	{r4}
4030228c:	e12fff1e 	bx	lr
40302290:	e3a00000 	mov	r0, #0
40302294:	eafffffb 	b	40302288 <wait_on_value+0x84>

40302298 <ns16550_init>:
40302298:	e3a03000 	mov	r3, #0
4030229c:	e3443802 	movt	r3, #18434	; 0x4802
403022a0:	e5932004 	ldr	r2, [r3, #4]
403022a4:	e3a02000 	mov	r2, #0
403022a8:	e5832004 	str	r2, [r3, #4]
403022ac:	e5931020 	ldr	r1, [r3, #32]
403022b0:	e3a01007 	mov	r1, #7
403022b4:	e5831020 	str	r1, [r3, #32]
403022b8:	e593c00c 	ldr	ip, [r3, #12]
403022bc:	e3a0c083 	mov	ip, #131	; 0x83
403022c0:	e583c00c 	str	ip, [r3, #12]
403022c4:	e593c000 	ldr	ip, [r3]
403022c8:	e6efc070 	uxtb	ip, r0
403022cc:	e583c000 	str	ip, [r3]
403022d0:	e593c004 	ldr	ip, [r3, #4]
403022d4:	e7e7c450 	ubfx	ip, r0, #8, #8
403022d8:	e583c004 	str	ip, [r3, #4]
403022dc:	e593000c 	ldr	r0, [r3, #12]
403022e0:	e3a00003 	mov	r0, #3
403022e4:	e583000c 	str	r0, [r3, #12]
403022e8:	e593c010 	ldr	ip, [r3, #16]
403022ec:	e5830010 	str	r0, [r3, #16]
403022f0:	e5930008 	ldr	r0, [r3, #8]
403022f4:	e5831008 	str	r1, [r3, #8]
403022f8:	e5931020 	ldr	r1, [r3, #32]
403022fc:	e5832020 	str	r2, [r3, #32]
40302300:	e12fff1e 	bx	lr

40302304 <setup_console>:
40302304:	e3a00a09 	mov	r0, #36864	; 0x9000
40302308:	e3440a00 	movt	r0, #18944	; 0x4a00
4030230c:	e5902550 	ldr	r2, [r0, #1360]	; 0x550
40302310:	e3c2c003 	bic	ip, r2, #3
40302314:	e38c1002 	orr	r1, ip, #2
40302318:	e3a03000 	mov	r3, #0
4030231c:	e3443a10 	movt	r3, #18960	; 0x4a10
40302320:	e5801550 	str	r1, [r0, #1360]	; 0x550
40302324:	e5932144 	ldr	r2, [r3, #324]	; 0x144
40302328:	e3a02c01 	mov	r2, #256	; 0x100
4030232c:	e3a0001a 	mov	r0, #26
40302330:	e5832144 	str	r2, [r3, #324]	; 0x144
40302334:	eaffffd7 	b	40302298 <ns16550_init>

40302338 <ns16550_putc>:
40302338:	e3a03000 	mov	r3, #0
4030233c:	e6ef0070 	uxtb	r0, r0
40302340:	e3443802 	movt	r3, #18434	; 0x4802
40302344:	e3a02000 	mov	r2, #0
40302348:	e5931014 	ldr	r1, [r3, #20]
4030234c:	e3442802 	movt	r2, #18434	; 0x4802
40302350:	e3110020 	tst	r1, #32
40302354:	0afffffa 	beq	40302344 <ns16550_putc+0xc>
40302358:	e350000a 	cmp	r0, #10
4030235c:	e5c20000 	strb	r0, [r2]
40302360:	112fff1e 	bxne	lr
40302364:	e3a0000d 	mov	r0, #13
40302368:	eafffff2 	b	40302338 <ns16550_putc>

4030236c <putc>:
4030236c:	e6ef0070 	uxtb	r0, r0
40302370:	eafffff0 	b	40302338 <ns16550_putc>

40302374 <puts>:
40302374:	e92d4010 	push	{r4, lr}
40302378:	e1a04000 	mov	r4, r0
4030237c:	e5d00000 	ldrb	r0, [r0]
40302380:	e3500000 	cmp	r0, #0
40302384:	08bd8010 	popeq	{r4, pc}
40302388:	ebffffea 	bl	40302338 <ns16550_putc>
4030238c:	e5f40001 	ldrb	r0, [r4, #1]!
40302390:	e3500000 	cmp	r0, #0
40302394:	1afffffb 	bne	40302388 <puts+0x14>
40302398:	e8bd8010 	pop	{r4, pc}

4030239c <ns16550_getc>:
4030239c:	e3a01000 	mov	r1, #0
403023a0:	e3441802 	movt	r1, #18434	; 0x4802
403023a4:	e3a03000 	mov	r3, #0
403023a8:	e5912014 	ldr	r2, [r1, #20]
403023ac:	e3443802 	movt	r3, #18434	; 0x4802
403023b0:	e3120001 	tst	r2, #1
403023b4:	0afffffa 	beq	403023a4 <ns16550_getc+0x8>
403023b8:	e5d30000 	ldrb	r0, [r3]
403023bc:	e12fff1e 	bx	lr

403023c0 <init_gpio_clk>:
403023c0:	e3a02a07 	mov	r2, #28672	; 0x7000
403023c4:	e3442a30 	movt	r2, #18992	; 0x4a30
403023c8:	e5921838 	ldr	r1, [r2, #2104]	; 0x838
403023cc:	e3813c01 	orr	r3, r1, #256	; 0x100
403023d0:	e3830001 	orr	r0, r3, #1
403023d4:	e3a03a09 	mov	r3, #36864	; 0x9000
403023d8:	e3443a00 	movt	r3, #18944	; 0x4a00
403023dc:	e5820838 	str	r0, [r2, #2104]	; 0x838
403023e0:	e593c400 	ldr	ip, [r3, #1024]	; 0x400
403023e4:	e38c1002 	orr	r1, ip, #2
403023e8:	e5831400 	str	r1, [r3, #1024]	; 0x400
403023ec:	e5930470 	ldr	r0, [r3, #1136]	; 0x470
403023f0:	e3802001 	orr	r2, r0, #1
403023f4:	e5832470 	str	r2, [r3, #1136]	; 0x470
403023f8:	e12fff1e 	bx	lr

403023fc <init_pad_control>:
403023fc:	e3a02a0e 	mov	r2, #57344	; 0xe000
40302400:	e3442a31 	movt	r2, #18993	; 0x4a31
40302404:	e592005c 	ldr	r0, [r2, #92]	; 0x5c
40302408:	e3c0300f 	bic	r3, r0, #15
4030240c:	e383c003 	orr	ip, r3, #3
40302410:	e3a03000 	mov	r3, #0
40302414:	e3443a10 	movt	r3, #18960	; 0x4a10
40302418:	e582c05c 	str	ip, [r2, #92]	; 0x5c
4030241c:	e59310f4 	ldr	r1, [r3, #244]	; 0xf4
40302420:	e3c1080f 	bic	r0, r1, #983040	; 0xf0000
40302424:	e3802803 	orr	r2, r0, #196608	; 0x30000
40302428:	e58320f4 	str	r2, [r3, #244]	; 0xf4
4030242c:	e12fff1e 	bx	lr

40302430 <init_gpio_led>:
40302430:	e3a02a07 	mov	r2, #28672	; 0x7000
40302434:	e3442a30 	movt	r2, #18992	; 0x4a30
40302438:	e5921838 	ldr	r1, [r2, #2104]	; 0x838
4030243c:	e3813c01 	orr	r3, r1, #256	; 0x100
40302440:	e383c001 	orr	ip, r3, #1
40302444:	e3a03a09 	mov	r3, #36864	; 0x9000
40302448:	e3443a00 	movt	r3, #18944	; 0x4a00
4030244c:	e582c838 	str	ip, [r2, #2104]	; 0x838
40302450:	e5930400 	ldr	r0, [r3, #1024]	; 0x400
40302454:	e3801002 	orr	r1, r0, #2
40302458:	e5831400 	str	r1, [r3, #1024]	; 0x400
4030245c:	e593c470 	ldr	ip, [r3, #1136]	; 0x470
40302460:	e38c2001 	orr	r2, ip, #1
40302464:	e3a0ca0e 	mov	ip, #57344	; 0xe000
40302468:	e344ca31 	movt	ip, #18993	; 0x4a31
4030246c:	e5832470 	str	r2, [r3, #1136]	; 0x470
40302470:	e59c005c 	ldr	r0, [ip, #92]	; 0x5c
40302474:	e3c0100f 	bic	r1, r0, #15
40302478:	e3813003 	orr	r3, r1, #3
4030247c:	e3a00000 	mov	r0, #0
40302480:	e3440a10 	movt	r0, #18960	; 0x4a10
40302484:	e58c305c 	str	r3, [ip, #92]	; 0x5c
40302488:	e59020f4 	ldr	r2, [r0, #244]	; 0xf4
4030248c:	e3c2c80f 	bic	ip, r2, #983040	; 0xf0000
40302490:	e38c1803 	orr	r1, ip, #196608	; 0x30000
40302494:	e3a0c000 	mov	ip, #0
40302498:	e344ca31 	movt	ip, #18993	; 0x4a31
4030249c:	e58010f4 	str	r1, [r0, #244]	; 0xf4
403024a0:	e59c3130 	ldr	r3, [ip, #304]	; 0x130
403024a4:	e3c30001 	bic	r0, r3, #1
403024a8:	e3a03a09 	mov	r3, #36864	; 0x9000
403024ac:	e3443805 	movt	r3, #18437	; 0x4805
403024b0:	e58c0130 	str	r0, [ip, #304]	; 0x130
403024b4:	e5932130 	ldr	r2, [r3, #304]	; 0x130
403024b8:	e3c21001 	bic	r1, r2, #1
403024bc:	e5831130 	str	r1, [r3, #304]	; 0x130
403024c0:	e59c0134 	ldr	r0, [ip, #308]	; 0x134
403024c4:	e3c02c01 	bic	r2, r0, #256	; 0x100
403024c8:	e58c2134 	str	r2, [ip, #308]	; 0x134
403024cc:	e5931134 	ldr	r1, [r3, #308]	; 0x134
403024d0:	e3c10901 	bic	r0, r1, #16384	; 0x4000
403024d4:	e5830134 	str	r0, [r3, #308]	; 0x134
403024d8:	e59c213c 	ldr	r2, [ip, #316]	; 0x13c
403024dc:	e3c21c01 	bic	r1, r2, #256	; 0x100
403024e0:	e58c113c 	str	r1, [ip, #316]	; 0x13c
403024e4:	e593013c 	ldr	r0, [r3, #316]	; 0x13c
403024e8:	e3c02901 	bic	r2, r0, #16384	; 0x4000
403024ec:	e583213c 	str	r2, [r3, #316]	; 0x13c
403024f0:	e12fff1e 	bx	lr

403024f4 <led_on>:
403024f4:	e3500001 	cmp	r0, #1
403024f8:	0a000007 	beq	4030251c <led_on+0x28>
403024fc:	e3500002 	cmp	r0, #2
40302500:	112fff1e 	bxne	lr
40302504:	e3a0c000 	mov	ip, #0
40302508:	e344ca31 	movt	ip, #18993	; 0x4a31
4030250c:	e59c213c 	ldr	r2, [ip, #316]	; 0x13c
40302510:	e3821c01 	orr	r1, r2, #256	; 0x100
40302514:	e58c113c 	str	r1, [ip, #316]	; 0x13c
40302518:	e12fff1e 	bx	lr
4030251c:	e3a03a09 	mov	r3, #36864	; 0x9000
40302520:	e3443805 	movt	r3, #18437	; 0x4805
40302524:	e593013c 	ldr	r0, [r3, #316]	; 0x13c
40302528:	e3802901 	orr	r2, r0, #16384	; 0x4000
4030252c:	e583213c 	str	r2, [r3, #316]	; 0x13c
40302530:	e12fff1e 	bx	lr

40302534 <led_off>:
40302534:	e3500001 	cmp	r0, #1
40302538:	0a000007 	beq	4030255c <led_off+0x28>
4030253c:	e3500002 	cmp	r0, #2
40302540:	112fff1e 	bxne	lr
40302544:	e3a0c000 	mov	ip, #0
40302548:	e344ca31 	movt	ip, #18993	; 0x4a31
4030254c:	e59c213c 	ldr	r2, [ip, #316]	; 0x13c
40302550:	e3c21c01 	bic	r1, r2, #256	; 0x100
40302554:	e58c113c 	str	r1, [ip, #316]	; 0x13c
40302558:	e12fff1e 	bx	lr
4030255c:	e3a03a09 	mov	r3, #36864	; 0x9000
40302560:	e3443805 	movt	r3, #18437	; 0x4805
40302564:	e593013c 	ldr	r0, [r3, #316]	; 0x13c
40302568:	e3c02901 	bic	r2, r0, #16384	; 0x4000
4030256c:	e583213c 	str	r2, [r3, #316]	; 0x13c
40302570:	e12fff1e 	bx	lr

40302574 <set_muxconf_regs>:
40302574:	e92d0ef0 	push	{r4, r5, r6, r7, r9, sl, fp}
40302578:	e3a03000 	mov	r3, #0
4030257c:	e3443a10 	movt	r3, #18960	; 0x4a10
40302580:	e300c119 	movw	ip, #281	; 0x119
40302584:	e1c3c4b0 	strh	ip, [r3, #64]	; 0x40
40302588:	e1c3c4b2 	strh	ip, [r3, #66]	; 0x42
4030258c:	e1c3c4b4 	strh	ip, [r3, #68]	; 0x44
40302590:	e1c3c4b6 	strh	ip, [r3, #70]	; 0x46
40302594:	e1c3c4b8 	strh	ip, [r3, #72]	; 0x48
40302598:	e1c3c4ba 	strh	ip, [r3, #74]	; 0x4a
4030259c:	e1c3c4bc 	strh	ip, [r3, #76]	; 0x4c
403025a0:	e1c3c4be 	strh	ip, [r3, #78]	; 0x4e
403025a4:	e300511b 	movw	r5, #283	; 0x11b
403025a8:	e1c355b0 	strh	r5, [r3, #80]	; 0x50
403025ac:	e1c355b2 	strh	r5, [r3, #82]	; 0x52
403025b0:	e1c355b4 	strh	r5, [r3, #84]	; 0x54
403025b4:	e1c355b6 	strh	r5, [r3, #86]	; 0x56
403025b8:	e1c355b8 	strh	r5, [r3, #88]	; 0x58
403025bc:	e3a0600b 	mov	r6, #11
403025c0:	e1c365ba 	strh	r6, [r3, #90]	; 0x5a
403025c4:	e1c365bc 	strh	r6, [r3, #92]	; 0x5c
403025c8:	e1c365be 	strh	r6, [r3, #94]	; 0x5e
403025cc:	e3a04003 	mov	r4, #3
403025d0:	e1c346b0 	strh	r4, [r3, #96]	; 0x60
403025d4:	e1c366b2 	strh	r6, [r3, #98]	; 0x62
403025d8:	e1c3c6b4 	strh	ip, [r3, #100]	; 0x64
403025dc:	e1c3c6b6 	strh	ip, [r3, #102]	; 0x66
403025e0:	e300a103 	movw	sl, #259	; 0x103
403025e4:	e1c3a6b8 	strh	sl, [r3, #104]	; 0x68
403025e8:	e1c346ba 	strh	r4, [r3, #106]	; 0x6a
403025ec:	e1c346bc 	strh	r4, [r3, #108]	; 0x6c
403025f0:	e3a00001 	mov	r0, #1
403025f4:	e1c306be 	strh	r0, [r3, #110]	; 0x6e
403025f8:	e1c367b0 	strh	r6, [r3, #112]	; 0x70
403025fc:	e1c367b2 	strh	r6, [r3, #114]	; 0x72
40302600:	e1c347b4 	strh	r4, [r3, #116]	; 0x74
40302604:	e1c3a7b6 	strh	sl, [r3, #118]	; 0x76
40302608:	e1c3a7b8 	strh	sl, [r3, #120]	; 0x78
4030260c:	e1c3a7ba 	strh	sl, [r3, #122]	; 0x7a
40302610:	e1c347bc 	strh	r4, [r3, #124]	; 0x7c
40302614:	e1c367be 	strh	r6, [r3, #126]	; 0x7e
40302618:	e1c348b0 	strh	r4, [r3, #128]	; 0x80
4030261c:	e1c3c8b2 	strh	ip, [r3, #130]	; 0x82
40302620:	e1c3c8b4 	strh	ip, [r3, #132]	; 0x84
40302624:	e1c348b6 	strh	r4, [r3, #134]	; 0x86
40302628:	e1c368b8 	strh	r6, [r3, #136]	; 0x88
4030262c:	e1c358ba 	strh	r5, [r3, #138]	; 0x8a
40302630:	e1c368bc 	strh	r6, [r3, #140]	; 0x8c
40302634:	e1c368be 	strh	r6, [r3, #142]	; 0x8e
40302638:	e1c359b0 	strh	r5, [r3, #144]	; 0x90
4030263c:	e1c369b2 	strh	r6, [r3, #146]	; 0x92
40302640:	e1c309b4 	strh	r0, [r3, #148]	; 0x94
40302644:	e1c369b6 	strh	r6, [r3, #150]	; 0x96
40302648:	e3a00000 	mov	r0, #0
4030264c:	e1c309b8 	strh	r0, [r3, #152]	; 0x98
40302650:	e1c309ba 	strh	r0, [r3, #154]	; 0x9a
40302654:	e3a02018 	mov	r2, #24
40302658:	e1c329bc 	strh	r2, [r3, #156]	; 0x9c
4030265c:	e3a01f46 	mov	r1, #280	; 0x118
40302660:	e1c319be 	strh	r1, [r3, #158]	; 0x9e
40302664:	e3a02c01 	mov	r2, #256	; 0x100
40302668:	e1c32ab0 	strh	r2, [r3, #160]	; 0xa0
4030266c:	e1c32ab2 	strh	r2, [r3, #162]	; 0xa2
40302670:	e1c32ab4 	strh	r2, [r3, #164]	; 0xa4
40302674:	e1c32ab6 	strh	r2, [r3, #166]	; 0xa6
40302678:	e1c32ab8 	strh	r2, [r3, #168]	; 0xa8
4030267c:	e1c32aba 	strh	r2, [r3, #170]	; 0xaa
40302680:	e3a0b00f 	mov	fp, #15
40302684:	e1c3babc 	strh	fp, [r3, #172]	; 0xac
40302688:	e1c3babe 	strh	fp, [r3, #174]	; 0xae
4030268c:	e1c3bbb0 	strh	fp, [r3, #176]	; 0xb0
40302690:	e1c3bbb2 	strh	fp, [r3, #178]	; 0xb2
40302694:	e1c32bb4 	strh	r2, [r3, #180]	; 0xb4
40302698:	e1c32bb6 	strh	r2, [r3, #182]	; 0xb6
4030269c:	e1c32bb8 	strh	r2, [r3, #184]	; 0xb8
403026a0:	e1c32bba 	strh	r2, [r3, #186]	; 0xba
403026a4:	e1c30bbc 	strh	r0, [r3, #188]	; 0xbc
403026a8:	e1c30bbe 	strh	r0, [r3, #190]	; 0xbe
403026ac:	e1c36cb0 	strh	r6, [r3, #192]	; 0xc0
403026b0:	e3a0bf43 	mov	fp, #268	; 0x10c
403026b4:	e1c3bcb2 	strh	fp, [r3, #194]	; 0xc2
403026b8:	e3a07004 	mov	r7, #4
403026bc:	e1c37cb4 	strh	r7, [r3, #196]	; 0xc4
403026c0:	e3a07f41 	mov	r7, #260	; 0x104
403026c4:	e1c37cb6 	strh	r7, [r3, #198]	; 0xc6
403026c8:	e1c37cb8 	strh	r7, [r3, #200]	; 0xc8
403026cc:	e1c37cba 	strh	r7, [r3, #202]	; 0xca
403026d0:	e1c37cbc 	strh	r7, [r3, #204]	; 0xcc
403026d4:	e1c37cbe 	strh	r7, [r3, #206]	; 0xce
403026d8:	e1c37db0 	strh	r7, [r3, #208]	; 0xd0
403026dc:	e1c37db2 	strh	r7, [r3, #210]	; 0xd2
403026e0:	e1c37db4 	strh	r7, [r3, #212]	; 0xd4
403026e4:	e1c37db6 	strh	r7, [r3, #214]	; 0xd6
403026e8:	e1c37db8 	strh	r7, [r3, #216]	; 0xd8
403026ec:	e1c32dba 	strh	r2, [r3, #218]	; 0xda
403026f0:	e1c32dbc 	strh	r2, [r3, #220]	; 0xdc
403026f4:	e1c32dbe 	strh	r2, [r3, #222]	; 0xde
403026f8:	e1c32eb0 	strh	r2, [r3, #224]	; 0xe0
403026fc:	e3a09018 	mov	r9, #24
40302700:	e1c39eb2 	strh	r9, [r3, #226]	; 0xe2
40302704:	e1c31eb4 	strh	r1, [r3, #228]	; 0xe4
40302708:	e1c31eb6 	strh	r1, [r3, #230]	; 0xe6
4030270c:	e1c31eb8 	strh	r1, [r3, #232]	; 0xe8
40302710:	e1c31eba 	strh	r1, [r3, #234]	; 0xea
40302714:	e1c31ebc 	strh	r1, [r3, #236]	; 0xec
40302718:	e1c31ebe 	strh	r1, [r3, #238]	; 0xee
4030271c:	e1c31fb0 	strh	r1, [r3, #240]	; 0xf0
40302720:	e1c31fb2 	strh	r1, [r3, #242]	; 0xf2
40302724:	e1c31fb4 	strh	r1, [r3, #244]	; 0xf4
40302728:	e1c35fb6 	strh	r5, [r3, #246]	; 0xf6
4030272c:	e1c32fb8 	strh	r2, [r3, #248]	; 0xf8
40302730:	e1c30fba 	strh	r0, [r3, #250]	; 0xfa
40302734:	e1c35fbc 	strh	r5, [r3, #252]	; 0xfc
40302738:	e1c32fbe 	strh	r2, [r3, #254]	; 0xfe
4030273c:	e18320b2 	strh	r2, [r3, r2]
40302740:	e3009102 	movw	r9, #258	; 0x102
40302744:	e18300b9 	strh	r0, [r3, r9]
40302748:	e18320b7 	strh	r2, [r3, r7]
4030274c:	e2899004 	add	r9, r9, #4
40302750:	e3a07f42 	mov	r7, #264	; 0x108
40302754:	e18370b9 	strh	r7, [r3, r9]
40302758:	e18370b7 	strh	r7, [r3, r7]
4030275c:	e2899004 	add	r9, r9, #4
40302760:	e18310b9 	strh	r1, [r3, r9]
40302764:	e18370bb 	strh	r7, [r3, fp]
40302768:	e2899004 	add	r9, r9, #4
4030276c:	e18370b9 	strh	r7, [r3, r9]
40302770:	e3a0be11 	mov	fp, #272	; 0x110
40302774:	e18300bb 	strh	r0, [r3, fp]
40302778:	e28b9002 	add	r9, fp, #2
4030277c:	e18320b9 	strh	r2, [r3, r9]
40302780:	e3a0bf45 	mov	fp, #276	; 0x114
40302784:	e18350bb 	strh	r5, [r3, fp]
40302788:	e28b9002 	add	r9, fp, #2
4030278c:	e18320b9 	strh	r2, [r3, r9]
40302790:	e18310b1 	strh	r1, [r3, r1]
40302794:	e289b004 	add	fp, r9, #4
40302798:	e18300bb 	strh	r0, [r3, fp]
4030279c:	e3a09f47 	mov	r9, #284	; 0x11c
403027a0:	e18310b9 	strh	r1, [r3, r9]
403027a4:	e289b002 	add	fp, r9, #2
403027a8:	e18300bb 	strh	r0, [r3, fp]
403027ac:	e3a09e12 	mov	r9, #288	; 0x120
403027b0:	e18340b9 	strh	r4, [r3, r9]
403027b4:	e289b002 	add	fp, r9, #2
403027b8:	e18310bb 	strh	r1, [r3, fp]
403027bc:	e3a09f49 	mov	r9, #292	; 0x124
403027c0:	e18310b9 	strh	r1, [r3, r9]
403027c4:	e289b002 	add	fp, r9, #2
403027c8:	e18310bb 	strh	r1, [r3, fp]
403027cc:	e3a09f4a 	mov	r9, #296	; 0x128
403027d0:	e18310b9 	strh	r1, [r3, r9]
403027d4:	e289b002 	add	fp, r9, #2
403027d8:	e18310bb 	strh	r1, [r3, fp]
403027dc:	e3a09f4b 	mov	r9, #300	; 0x12c
403027e0:	e18310b9 	strh	r1, [r3, r9]
403027e4:	e289b002 	add	fp, r9, #2
403027e8:	e18310bb 	strh	r1, [r3, fp]
403027ec:	e3a09e13 	mov	r9, #304	; 0x130
403027f0:	e18310b9 	strh	r1, [r3, r9]
403027f4:	e289b002 	add	fp, r9, #2
403027f8:	e18320bb 	strh	r2, [r3, fp]
403027fc:	e3a09f4d 	mov	r9, #308	; 0x134
40302800:	e18320b9 	strh	r2, [r3, r9]
40302804:	e289b002 	add	fp, r9, #2
40302808:	e18320bb 	strh	r2, [r3, fp]
4030280c:	e3a09f4e 	mov	r9, #312	; 0x138
40302810:	e18370b9 	strh	r7, [r3, r9]
40302814:	e2899002 	add	r9, r9, #2
40302818:	e300b10b 	movw	fp, #267	; 0x10b
4030281c:	e183b0b9 	strh	fp, [r3, r9]
40302820:	e3a09f4f 	mov	r9, #316	; 0x13c
40302824:	e3a0b01b 	mov	fp, #27
40302828:	e183b0b9 	strh	fp, [r3, r9]
4030282c:	e2899002 	add	r9, r9, #2
40302830:	e18350b9 	strh	r5, [r3, r9]
40302834:	e3a0bd05 	mov	fp, #320	; 0x140
40302838:	e18310bb 	strh	r1, [r3, fp]
4030283c:	e28b9002 	add	r9, fp, #2
40302840:	e18300b9 	strh	r0, [r3, r9]
40302844:	e3a0bf51 	mov	fp, #324	; 0x144
40302848:	e18320bb 	strh	r2, [r3, fp]
4030284c:	e28b9002 	add	r9, fp, #2
40302850:	e18300b9 	strh	r0, [r3, r9]
40302854:	e3a0bf52 	mov	fp, #328	; 0x148
40302858:	e18310bb 	strh	r1, [r3, fp]
4030285c:	e28b9002 	add	r9, fp, #2
40302860:	e18310b9 	strh	r1, [r3, r9]
40302864:	e3a0bf53 	mov	fp, #332	; 0x14c
40302868:	e18310bb 	strh	r1, [r3, fp]
4030286c:	e28b9002 	add	r9, fp, #2
40302870:	e18310b9 	strh	r1, [r3, r9]
40302874:	e3a0be15 	mov	fp, #336	; 0x150
40302878:	e18310bb 	strh	r1, [r3, fp]
4030287c:	e28b9002 	add	r9, fp, #2
40302880:	e18310b9 	strh	r1, [r3, r9]
40302884:	e3a0bf55 	mov	fp, #340	; 0x154
40302888:	e18320bb 	strh	r2, [r3, fp]
4030288c:	e28b9002 	add	r9, fp, #2
40302890:	e18320b9 	strh	r2, [r3, r9]
40302894:	e3a0bf56 	mov	fp, #344	; 0x158
40302898:	e18320bb 	strh	r2, [r3, fp]
4030289c:	e28bb002 	add	fp, fp, #2
403028a0:	e18370bb 	strh	r7, [r3, fp]
403028a4:	e3a07f57 	mov	r7, #348	; 0x15c
403028a8:	e18320b7 	strh	r2, [r3, r7]
403028ac:	e2879002 	add	r9, r7, #2
403028b0:	e18300b9 	strh	r0, [r3, r9]
403028b4:	e3a07e16 	mov	r7, #352	; 0x160
403028b8:	e183a0b7 	strh	sl, [r3, r7]
403028bc:	e28b9008 	add	r9, fp, #8
403028c0:	e3007105 	movw	r7, #261	; 0x105
403028c4:	e18370b9 	strh	r7, [r3, r9]
403028c8:	e3a0bf59 	mov	fp, #356	; 0x164
403028cc:	e18370bb 	strh	r7, [r3, fp]
403028d0:	e28b9002 	add	r9, fp, #2
403028d4:	e18370b9 	strh	r7, [r3, r9]
403028d8:	e3a0bf5a 	mov	fp, #360	; 0x168
403028dc:	e18370bb 	strh	r7, [r3, fp]
403028e0:	e28b9002 	add	r9, fp, #2
403028e4:	e18370b9 	strh	r7, [r3, r9]
403028e8:	e3a0bf5b 	mov	fp, #364	; 0x16c
403028ec:	e18370bb 	strh	r7, [r3, fp]
403028f0:	e28b9002 	add	r9, fp, #2
403028f4:	e18370b9 	strh	r7, [r3, r9]
403028f8:	e3a0be17 	mov	fp, #368	; 0x170
403028fc:	e18370bb 	strh	r7, [r3, fp]
40302900:	e28b9002 	add	r9, fp, #2
40302904:	e18370b9 	strh	r7, [r3, r9]
40302908:	e3a0bf5d 	mov	fp, #372	; 0x174
4030290c:	e18370bb 	strh	r7, [r3, fp]
40302910:	e28b9002 	add	r9, fp, #2
40302914:	e18370b9 	strh	r7, [r3, r9]
40302918:	e3a0bf5e 	mov	fp, #376	; 0x178
4030291c:	e18360bb 	strh	r6, [r3, fp]
40302920:	e28b9002 	add	r9, fp, #2
40302924:	e18360b9 	strh	r6, [r3, r9]
40302928:	e3a0bf5f 	mov	fp, #380	; 0x17c
4030292c:	e300910b 	movw	r9, #267	; 0x10b
40302930:	e18390bb 	strh	r9, [r3, fp]
40302934:	e28b6002 	add	r6, fp, #2
40302938:	e3a0b001 	mov	fp, #1
4030293c:	e183b0b6 	strh	fp, [r3, r6]
40302940:	e3a06d06 	mov	r6, #384	; 0x180
40302944:	e183b0b6 	strh	fp, [r3, r6]
40302948:	e2866002 	add	r6, r6, #2
4030294c:	e183b0b6 	strh	fp, [r3, r6]
40302950:	e3a06f61 	mov	r6, #388	; 0x184
40302954:	e18350b6 	strh	r5, [r3, r6]
40302958:	e286b002 	add	fp, r6, #2
4030295c:	e18350bb 	strh	r5, [r3, fp]
40302960:	e3a06f62 	mov	r6, #392	; 0x188
40302964:	e183c0b6 	strh	ip, [r3, r6]
40302968:	e286b002 	add	fp, r6, #2
4030296c:	e183c0bb 	strh	ip, [r3, fp]
40302970:	e3a06f63 	mov	r6, #396	; 0x18c
40302974:	e183c0b6 	strh	ip, [r3, r6]
40302978:	e286b002 	add	fp, r6, #2
4030297c:	e183c0bb 	strh	ip, [r3, fp]
40302980:	e3a06e19 	mov	r6, #400	; 0x190
40302984:	e183c0b6 	strh	ip, [r3, r6]
40302988:	e286b002 	add	fp, r6, #2
4030298c:	e183c0bb 	strh	ip, [r3, fp]
40302990:	e3a0bf65 	mov	fp, #404	; 0x194
40302994:	e3a06008 	mov	r6, #8
40302998:	e18360bb 	strh	r6, [r3, fp]
4030299c:	e28bc002 	add	ip, fp, #2
403029a0:	e18320bc 	strh	r2, [r3, ip]
403029a4:	e3a06f66 	mov	r6, #408	; 0x198
403029a8:	e18320b6 	strh	r2, [r3, r6]
403029ac:	e286b002 	add	fp, r6, #2
403029b0:	e18300bb 	strh	r0, [r3, fp]
403029b4:	e3a0cf67 	mov	ip, #412	; 0x19c
403029b8:	e18350bc 	strh	r5, [r3, ip]
403029bc:	e28c6002 	add	r6, ip, #2
403029c0:	e18310b6 	strh	r1, [r3, r6]
403029c4:	e3a0be1a 	mov	fp, #416	; 0x1a0
403029c8:	e18310bb 	strh	r1, [r3, fp]
403029cc:	e28bc002 	add	ip, fp, #2
403029d0:	e18350bc 	strh	r5, [r3, ip]
403029d4:	e3a06f69 	mov	r6, #420	; 0x1a4
403029d8:	e18340b6 	strh	r4, [r3, r6]
403029dc:	e286b002 	add	fp, r6, #2
403029e0:	e300610b 	movw	r6, #267	; 0x10b
403029e4:	e18360bb 	strh	r6, [r3, fp]
403029e8:	e3a0cf6a 	mov	ip, #424	; 0x1a8
403029ec:	e18340bc 	strh	r4, [r3, ip]
403029f0:	e28cb002 	add	fp, ip, #2
403029f4:	e18340bb 	strh	r4, [r3, fp]
403029f8:	e3a0cf6b 	mov	ip, #428	; 0x1ac
403029fc:	e18360bc 	strh	r6, [r3, ip]
40302a00:	e28cb002 	add	fp, ip, #2
40302a04:	e18320bb 	strh	r2, [r3, fp]
40302a08:	e3a0ce1b 	mov	ip, #432	; 0x1b0
40302a0c:	e18320bc 	strh	r2, [r3, ip]
40302a10:	e28cb002 	add	fp, ip, #2
40302a14:	e18320bb 	strh	r2, [r3, fp]
40302a18:	e3a0cf6d 	mov	ip, #436	; 0x1b4
40302a1c:	e18370bc 	strh	r7, [r3, ip]
40302a20:	e28cb002 	add	fp, ip, #2
40302a24:	e18370bb 	strh	r7, [r3, fp]
40302a28:	e3a0cf6e 	mov	ip, #440	; 0x1b8
40302a2c:	e18370bc 	strh	r7, [r3, ip]
40302a30:	e28cb002 	add	fp, ip, #2
40302a34:	e18370bb 	strh	r7, [r3, fp]
40302a38:	e3a0cf6f 	mov	ip, #444	; 0x1bc
40302a3c:	e18370bc 	strh	r7, [r3, ip]
40302a40:	e28cb002 	add	fp, ip, #2
40302a44:	e18370bb 	strh	r7, [r3, fp]
40302a48:	e3a0cd07 	mov	ip, #448	; 0x1c0
40302a4c:	e18370bc 	strh	r7, [r3, ip]
40302a50:	e28cb002 	add	fp, ip, #2
40302a54:	e18370bb 	strh	r7, [r3, fp]
40302a58:	e3a0cf71 	mov	ip, #452	; 0x1c4
40302a5c:	e18370bc 	strh	r7, [r3, ip]
40302a60:	e28cb002 	add	fp, ip, #2
40302a64:	e18370bb 	strh	r7, [r3, fp]
40302a68:	e3a0cf72 	mov	ip, #456	; 0x1c8
40302a6c:	e18370bc 	strh	r7, [r3, ip]
40302a70:	e28cb002 	add	fp, ip, #2
40302a74:	e18370bb 	strh	r7, [r3, fp]
40302a78:	e3a0cf73 	mov	ip, #460	; 0x1cc
40302a7c:	e18370bc 	strh	r7, [r3, ip]
40302a80:	e28cb002 	add	fp, ip, #2
40302a84:	e18340bb 	strh	r4, [r3, fp]
40302a88:	e3a0ce1d 	mov	ip, #464	; 0x1d0
40302a8c:	e18370bc 	strh	r7, [r3, ip]
40302a90:	e28cb002 	add	fp, ip, #2
40302a94:	e18370bb 	strh	r7, [r3, fp]
40302a98:	e3a0cf75 	mov	ip, #468	; 0x1d4
40302a9c:	e18370bc 	strh	r7, [r3, ip]
40302aa0:	e3a03a0e 	mov	r3, #57344	; 0xe000
40302aa4:	e3443a31 	movt	r3, #18993	; 0x4a31
40302aa8:	e1c324b0 	strh	r2, [r3, #64]	; 0x40
40302aac:	e1c304b2 	strh	r0, [r3, #66]	; 0x42
40302ab0:	e1c304b4 	strh	r0, [r3, #68]	; 0x44
40302ab4:	e1c314b6 	strh	r1, [r3, #70]	; 0x46
40302ab8:	e1c304b8 	strh	r0, [r3, #72]	; 0x48
40302abc:	e1c314ba 	strh	r1, [r3, #74]	; 0x4a
40302ac0:	e1c314bc 	strh	r1, [r3, #76]	; 0x4c
40302ac4:	e1c304be 	strh	r0, [r3, #78]	; 0x4e
40302ac8:	e1c305b0 	strh	r0, [r3, #80]	; 0x50
40302acc:	e1c305b2 	strh	r0, [r3, #82]	; 0x52
40302ad0:	e3a01002 	mov	r1, #2
40302ad4:	e1c315b4 	strh	r1, [r3, #84]	; 0x54
40302ad8:	e1c345b6 	strh	r4, [r3, #86]	; 0x56
40302adc:	e1c305b8 	strh	r0, [r3, #88]	; 0x58
40302ae0:	e1c345ba 	strh	r4, [r3, #90]	; 0x5a
40302ae4:	e1c355bc 	strh	r5, [r3, #92]	; 0x5c
40302ae8:	e1c325be 	strh	r2, [r3, #94]	; 0x5e
40302aec:	e1c306b0 	strh	r0, [r3, #96]	; 0x60
40302af0:	e1c306b2 	strh	r0, [r3, #98]	; 0x62
40302af4:	e3a0b018 	mov	fp, #24
40302af8:	e1c3b6b4 	strh	fp, [r3, #100]	; 0x64
40302afc:	e1c346b6 	strh	r4, [r3, #102]	; 0x66
40302b00:	e1c3a6b8 	strh	sl, [r3, #104]	; 0x68
40302b04:	e1c3a6ba 	strh	sl, [r3, #106]	; 0x6a
40302b08:	e1c345ba 	strh	r4, [r3, #90]	; 0x5a
40302b0c:	e8bd0ef0 	pop	{r4, r5, r6, r7, r9, sl, fp}
40302b10:	e12fff1e 	bx	lr

Disassembly of section .rodata:

40302b14 <CSWTCH.8>:
40302b14:	00000010 	andeq	r0, r0, r0, lsl r0
40302b18:	00000000 	andeq	r0, r0, r0
40302b1c:	00000011 	andeq	r0, r0, r1, lsl r0

40302b20 <per_dpll_param>:
	...
40302bf8:	00000014 	andeq	r0, r0, r4, lsl r0
40302bfc:	00000000 	andeq	r0, r0, r0
40302c00:	00000008 	andeq	r0, r0, r8
40302c04:	00000006 	andeq	r0, r0, r6
40302c08:	0000000c 	andeq	r0, r0, ip
40302c0c:	00000009 	andeq	r0, r0, r9
40302c10:	00000004 	andeq	r0, r0, r4
40302c14:	00000005 	andeq	r0, r0, r5
40302c18:	00000000 	andeq	r0, r0, r0

Disassembly of section .data:

40302c1c <core_dpll_param_l3_190>:
	...
40302cf4:	000001b0 			; <UNDEFINED> instruction: 0x000001b0
40302cf8:	00000018 	andeq	r0, r0, r8, lsl r0
40302cfc:	00000001 	andeq	r0, r0, r1
40302d00:	00000005 	andeq	r0, r0, r5
40302d04:	00000008 	andeq	r0, r0, r8
40302d08:	00000004 	andeq	r0, r0, r4
40302d0c:	00000006 	andeq	r0, r0, r6
40302d10:	00000005 	andeq	r0, r0, r5
40302d14:	00000000 	andeq	r0, r0, r0

40302d18 <core_dpll_param>:
	...
40302df0:	0000007d 	andeq	r0, r0, sp, ror r0
40302df4:	00000005 	andeq	r0, r0, r5
40302df8:	00000002 	andeq	r0, r0, r2
40302dfc:	00000005 	andeq	r0, r0, r5
40302e00:	00000008 	andeq	r0, r0, r8
40302e04:	00000004 	andeq	r0, r0, r4
40302e08:	00000006 	andeq	r0, r0, r6
40302e0c:	00000005 	andeq	r0, r0, r5
40302e10:	00000000 	andeq	r0, r0, r0

40302e14 <core_dpll_param_ddr400>:
	...
40302eec:	0000007d 	andeq	r0, r0, sp, ror r0
40302ef0:	00000005 	andeq	r0, r0, r5
40302ef4:	00000001 	andeq	r0, r0, r1
40302ef8:	00000005 	andeq	r0, r0, r5
40302efc:	00000008 	andeq	r0, r0, r8
40302f00:	00000004 	andeq	r0, r0, r4
40302f04:	00000006 	andeq	r0, r0, r6
40302f08:	00000005 	andeq	r0, r0, r5
40302f0c:	00000000 	andeq	r0, r0, r0

40302f10 <mpu_dpll_param_800mhz>:
40302f10:	000000c8 	andeq	r0, r0, r8, asr #1
40302f14:	00000002 	andeq	r0, r0, r2
40302f18:	00000001 	andeq	r0, r0, r1
	...
40302f34:	00000320 	andeq	r0, r0, r0, lsr #6
40302f38:	0000000c 	andeq	r0, r0, ip
40302f3c:	00000001 	andeq	r0, r0, r1
	...
40302f58:	000003e8 	andeq	r0, r0, r8, ror #7
40302f5c:	00000014 	andeq	r0, r0, r4, lsl r0
40302f60:	00000001 	andeq	r0, r0, r1
	...
40302f7c:	0000007d 	andeq	r0, r0, sp, ror r0
40302f80:	00000002 	andeq	r0, r0, r2
40302f84:	00000001 	andeq	r0, r0, r1
	...
40302fa0:	00000190 	muleq	r0, r0, r1
40302fa4:	0000000c 	andeq	r0, r0, ip
40302fa8:	00000001 	andeq	r0, r0, r1
	...
40302fc4:	00000320 	andeq	r0, r0, r0, lsr #6
40302fc8:	0000001a 	andeq	r0, r0, sl, lsl r0
40302fcc:	00000001 	andeq	r0, r0, r1
	...
40302fe8:	0000007d 	andeq	r0, r0, sp, ror r0
40302fec:	00000005 	andeq	r0, r0, r5
40302ff0:	00000001 	andeq	r0, r0, r1
	...

4030300c <mpu_dpll_param_700mhz>:
4030300c:	000000af 	andeq	r0, r0, pc, lsr #1
40303010:	00000002 	andeq	r0, r0, r2
40303014:	00000001 	andeq	r0, r0, r1
	...
40303030:	000002bc 			; <UNDEFINED> instruction: 0x000002bc
40303034:	0000000c 	andeq	r0, r0, ip
40303038:	00000001 	andeq	r0, r0, r1
	...
40303054:	0000007d 	andeq	r0, r0, sp, ror r0
40303058:	00000002 	andeq	r0, r0, r2
4030305c:	00000001 	andeq	r0, r0, r1
	...
40303078:	0000036b 	andeq	r0, r0, fp, ror #6
4030307c:	00000017 	andeq	r0, r0, r7, lsl r0
40303080:	00000001 	andeq	r0, r0, r1
	...
4030309c:	0000015e 	andeq	r0, r0, lr, asr r1
403030a0:	0000000c 	andeq	r0, r0, ip
403030a4:	00000001 	andeq	r0, r0, r1
	...
403030c0:	000002bc 			; <UNDEFINED> instruction: 0x000002bc
403030c4:	0000001a 	andeq	r0, r0, sl, lsl r0
403030c8:	00000001 	andeq	r0, r0, r1
	...
403030e4:	0000036b 	andeq	r0, r0, fp, ror #6
403030e8:	0000002f 	andeq	r0, r0, pc, lsr #32
403030ec:	00000001 	andeq	r0, r0, r1
	...

40303108 <mpu_dpll_param_600mhz>:
40303108:	00000032 	andeq	r0, r0, r2, lsr r0
4030310c:	00000000 	andeq	r0, r0, r0
40303110:	00000001 	andeq	r0, r0, r1
	...
4030312c:	00000258 	andeq	r0, r0, r8, asr r2
40303130:	0000000c 	andeq	r0, r0, ip
40303134:	00000001 	andeq	r0, r0, r1
	...
40303150:	000000fa 	strdeq	r0, [r0], -sl
40303154:	00000006 	andeq	r0, r0, r6
40303158:	00000001 	andeq	r0, r0, r1
	...
40303174:	0000007d 	andeq	r0, r0, sp, ror r0
40303178:	00000003 	andeq	r0, r0, r3
4030317c:	00000001 	andeq	r0, r0, r1
	...
40303198:	0000012c 	andeq	r0, r0, ip, lsr #2
4030319c:	0000000c 	andeq	r0, r0, ip
403031a0:	00000001 	andeq	r0, r0, r1
	...
403031bc:	000000c8 	andeq	r0, r0, r8, asr #1
403031c0:	00000008 	andeq	r0, r0, r8
403031c4:	00000001 	andeq	r0, r0, r1
	...
403031e0:	0000007d 	andeq	r0, r0, sp, ror r0
403031e4:	00000007 	andeq	r0, r0, r7
403031e8:	00000001 	andeq	r0, r0, r1
	...

40303204 <iva_dpll_param>:
	...
403032dc:	00000061 	andeq	r0, r0, r1, rrx
403032e0:	00000003 	andeq	r0, r0, r3
	...
403032ec:	00000008 	andeq	r0, r0, r8
403032f0:	0000000e 	andeq	r0, r0, lr
	...

40303300 <abe_dpll_param>:
	...
403033d8:	000002ee 	andeq	r0, r0, lr, ror #5
403033dc:	00000000 	andeq	r0, r0, r0
403033e0:	00000001 	andeq	r0, r0, r1
403033e4:	00000001 	andeq	r0, r0, r1
	...

403033fc <usb_dpll_param>:
	...
403034d4:	00000032 	andeq	r0, r0, r2, lsr r0
403034d8:	00000001 	andeq	r0, r0, r1
403034dc:	00000002 	andeq	r0, r0, r2
	...
403034f4:	00000004 	andeq	r0, r0, r4

403034f8 <core_dpll_param_ddr466>:
	...
403035d0:	0000036b 	andeq	r0, r0, fp, ror #6
403035d4:	00000023 	andeq	r0, r0, r3, lsr #32
403035d8:	00000001 	andeq	r0, r0, r1
403035dc:	00000006 	andeq	r0, r0, r6
403035e0:	00000008 	andeq	r0, r0, r8
403035e4:	00000004 	andeq	r0, r0, r4
403035e8:	00000007 	andeq	r0, r0, r7
403035ec:	00000005 	andeq	r0, r0, r5
403035f0:	00000000 	andeq	r0, r0, r0

403035f4 <mpu_dpll_param_1_5ghz>:
403035f4:	0000007d 	andeq	r0, r0, sp, ror r0
403035f8:	00000001 	andeq	r0, r0, r1
403035fc:	00000001 	andeq	r0, r0, r1
	...
40303618:	000002ee 	andeq	r0, r0, lr, ror #5
4030361c:	0000000c 	andeq	r0, r0, ip
40303620:	00000001 	andeq	r0, r0, r1
	...
4030363c:	00000271 	andeq	r0, r0, r1, ror r2
40303640:	0000000d 	andeq	r0, r0, sp
40303644:	00000001 	andeq	r0, r0, r1
	...
40303660:	00000271 	andeq	r0, r0, r1, ror r2
40303664:	0000000f 	andeq	r0, r0, pc
40303668:	00000001 	andeq	r0, r0, r1
	...
40303684:	00000177 	andeq	r0, r0, r7, ror r1
40303688:	0000000c 	andeq	r0, r0, ip
4030368c:	00000001 	andeq	r0, r0, r1
	...
403036a8:	000000fa 	strdeq	r0, [r0], -sl
403036ac:	00000008 	andeq	r0, r0, r8
403036b0:	00000001 	andeq	r0, r0, r1
	...
403036cc:	00000271 	andeq	r0, r0, r1, ror r2
403036d0:	0000001f 	andeq	r0, r0, pc, lsl r0
403036d4:	00000001 	andeq	r0, r0, r1
	...

403036f0 <mpu_dpll_param_920mhz>:
403036f0:	000000e6 	andeq	r0, r0, r6, ror #1
403036f4:	00000002 	andeq	r0, r0, r2
403036f8:	00000001 	andeq	r0, r0, r1
	...
40303714:	00000398 	muleq	r0, r8, r3
40303718:	0000000c 	andeq	r0, r0, ip
4030371c:	00000001 	andeq	r0, r0, r1
	...
40303738:	000000db 	ldrdeq	r0, [r0], -fp
4030373c:	00000003 	andeq	r0, r0, r3
40303740:	00000001 	andeq	r0, r0, r1
	...
4030375c:	0000023f 	andeq	r0, r0, pc, lsr r2
40303760:	0000000b 	andeq	r0, r0, fp
40303764:	00000001 	andeq	r0, r0, r1
	...
40303780:	000001cc 	andeq	r0, r0, ip, asr #3
40303784:	0000000c 	andeq	r0, r0, ip
40303788:	00000001 	andeq	r0, r0, r1
	...
403037a4:	00000398 	muleq	r0, r8, r3
403037a8:	0000001a 	andeq	r0, r0, sl, lsl r0
403037ac:	00000001 	andeq	r0, r0, r1
	...
403037c8:	0000023f 	andeq	r0, r0, pc, lsr r2
403037cc:	00000017 	andeq	r0, r0, r7, lsl r0
403037d0:	00000001 	andeq	r0, r0, r1
	...

403037ec <mpu_dpll_param_1008mhz>:
403037ec:	00000054 	andeq	r0, r0, r4, asr r0
403037f0:	00000000 	andeq	r0, r0, r0
403037f4:	00000001 	andeq	r0, r0, r1
	...
40303810:	000003f0 	strdeq	r0, [r0], -r0	; <UNPREDICTABLE>
40303814:	0000000c 	andeq	r0, r0, ip
40303818:	00000001 	andeq	r0, r0, r1
	...
40303834:	0000003c 	andeq	r0, r0, ip, lsr r0
40303838:	00000000 	andeq	r0, r0, r0
4030383c:	00000001 	andeq	r0, r0, r1
	...
40303858:	00000069 	andeq	r0, r0, r9, rrx
4030385c:	00000001 	andeq	r0, r0, r1
40303860:	00000001 	andeq	r0, r0, r1
	...
4030387c:	000001f8 	strdeq	r0, [r0], -r8
40303880:	0000000c 	andeq	r0, r0, ip
40303884:	00000001 	andeq	r0, r0, r1
	...
403038a0:	00000070 	andeq	r0, r0, r0, ror r0
403038a4:	00000002 	andeq	r0, r0, r2
403038a8:	00000001 	andeq	r0, r0, r1
	...
403038c4:	00000069 	andeq	r0, r0, r9, rrx
403038c8:	00000003 	andeq	r0, r0, r3
403038cc:	00000001 	andeq	r0, r0, r1
	...

403038e8 <ddr_regs_elpida2G_380_mhz>:
403038e8:	10cb061a 	sbcne	r0, fp, sl, lsl r6
403038ec:	20350d52 	eorscs	r0, r5, r2, asr sp
403038f0:	00b1431f 	adcseq	r4, r1, pc, lsl r3
403038f4:	049ff408 	ldreq	pc, [pc], #1032	; 403038fc <ddr_regs_elpida2G_380_mhz+0x14>
403038f8:	000005ca 	andeq	r0, r0, sl, asr #11
403038fc:	80800eb1 			; <UNDEFINED> instruction: 0x80800eb1
40303900:	80801ab1 			; <UNDEFINED> instruction: 0x80801ab1
40303904:	500b3215 	andpl	r3, fp, r5, lsl r2
40303908:	00000483 	andeq	r0, r0, r3, lsl #9

4030390c <ddr_regs_elpida2G_200_mhz_2cs>:
4030390c:	08648309 	stmdaeq	r4!, {r0, r3, r8, r9, pc}^
40303910:	101b06ca 	andsne	r0, fp, sl, asr #13
40303914:	0048a19f 	umaaleq	sl, r8, pc, r1	; <UNPREDICTABLE>
40303918:	049ff405 	ldreq	pc, [pc], #1029	; 40303920 <ddr_regs_elpida2G_200_mhz_2cs+0x14>
4030391c:	0000030c 	andeq	r0, r0, ip, lsl #6
40303920:	80800eb9 			; <UNDEFINED> instruction: 0x80800eb9
40303924:	80800eb9 			; <UNDEFINED> instruction: 0x80800eb9
40303928:	d00b3215 	andle	r3, fp, r5, lsl r2
4030392c:	00000123 	andeq	r0, r0, r3, lsr #2

40303930 <ddr_regs_elpida2G_400_mhz_2cs>:
40303930:	10eb0662 	rscne	r0, fp, r2, ror #12
40303934:	20370dd2 	ldrsbtcs	r0, [r7], -r2
40303938:	00b1c33f 	adcseq	ip, r1, pc, lsr r3
4030393c:	049ff408 	ldreq	pc, [pc], #1032	; 40303944 <ddr_regs_elpida2G_400_mhz_2cs+0x14>
40303940:	00000618 	andeq	r0, r0, r8, lsl r6
40303944:	80800eb9 			; <UNDEFINED> instruction: 0x80800eb9
40303948:	80801ab9 			; <UNDEFINED> instruction: 0x80801ab9
4030394c:	d00b3215 	andle	r3, fp, r5, lsl r2
40303950:	00000483 	andeq	r0, r0, r3, lsl #9

40303954 <ddr_regs_elpida4G_400_mhz_1cs>:
40303954:	10eb0662 	rscne	r0, fp, r2, ror #12
40303958:	20370dd2 	ldrsbtcs	r0, [r7], -r2
4030395c:	00b1c33f 	adcseq	ip, r1, pc, lsr r3
40303960:	449ff408 	ldrmi	pc, [pc], #1032	; 40303968 <ddr_regs_elpida4G_400_mhz_1cs+0x14>
40303964:	00000618 	andeq	r0, r0, r8, lsl r6
40303968:	80800eb2 			; <UNDEFINED> instruction: 0x80800eb2
4030396c:	80801ab2 			; <UNDEFINED> instruction: 0x80801ab2
40303970:	500b3215 	andpl	r3, fp, r5, lsl r2
40303974:	00000483 	andeq	r0, r0, r3, lsl #9

40303978 <ddr_regs_elpida2G_200_mhz>:
40303978:	08648309 	stmdaeq	r4!, {r0, r3, r8, r9, pc}^
4030397c:	101b06ca 	andsne	r0, fp, sl, asr #13
40303980:	0048a19f 	umaaleq	sl, r8, pc, r1	; <UNPREDICTABLE>
40303984:	849ff405 	ldrhi	pc, [pc], #1029	; 4030398c <ddr_regs_elpida2G_200_mhz+0x14>
40303988:	0000030c 	andeq	r0, r0, ip, lsl #6
4030398c:	80000eb1 			; <UNDEFINED> instruction: 0x80000eb1
40303990:	80000eb1 			; <UNDEFINED> instruction: 0x80000eb1
40303994:	500b3215 	andpl	r3, fp, r5, lsl r2
40303998:	00000123 	andeq	r0, r0, r3, lsr #2

4030399c <ddr_regs_elpida4G_466_mhz_1cs>:
4030399c:	130f376b 	movwne	r3, #63339	; 0xf76b
403039a0:	3041105a 	subcc	r1, r1, sl, asr r0
403039a4:	00f543cf 	rscseq	r4, r5, pc, asr #7
403039a8:	449ff408 	ldrmi	pc, [pc], #1032	; 403039b0 <ddr_regs_elpida4G_466_mhz_1cs+0x14>
403039ac:	0000071b 	andeq	r0, r0, fp, lsl r7
403039b0:	80800eb2 			; <UNDEFINED> instruction: 0x80800eb2
403039b4:	80801ab2 			; <UNDEFINED> instruction: 0x80801ab2
403039b8:	500b3215 	andpl	r3, fp, r5, lsl r2
403039bc:	00000483 	andeq	r0, r0, r3, lsl #9

403039c0 <ddr_regs_elpida2G_400_mhz>:
403039c0:	10eb065a 	rscne	r0, fp, sl, asr r6
403039c4:	20370dd2 	ldrsbtcs	r0, [r7], -r2
403039c8:	00b1c33f 	adcseq	ip, r1, pc, lsr r3
403039cc:	849ff408 	ldrhi	pc, [pc], #1032	; 403039d4 <ddr_regs_elpida2G_400_mhz+0x14>
403039d0:	00000618 	andeq	r0, r0, r8, lsl r6
403039d4:	80000eb1 			; <UNDEFINED> instruction: 0x80000eb1
403039d8:	80001ab1 			; <UNDEFINED> instruction: 0x80001ab1
403039dc:	500b3215 	andpl	r3, fp, r5, lsl r2
403039e0:	00000483 	andeq	r0, r0, r3, lsl #9

Disassembly of section .ARM.attributes:

00000000 <.ARM.attributes>:
   0:	00000f41 	andeq	r0, r0, r1, asr #30
   4:	61656100 	cmnvs	r5, r0, lsl #2
   8:	01006962 	tsteq	r0, r2, ror #18
   c:	00000005 	andeq	r0, r0, r5

Disassembly of section .comment:

00000000 <.comment>:
   0:	3a434347 	bcc	10d0d24 <TEXT_BASE-0x3f22f2dc>
   4:	6f532820 	svcvs	0x00532820
   8:	65637275 	strbvs	r7, [r3, #-629]!	; 0xfffffd8b
   c:	43207972 	teqmi	r0, #1867776	; 0x1c8000
  10:	4265646f 	rsbmi	r6, r5, #1862270976	; 0x6f000000
  14:	68636e65 	stmdavs	r3!, {r0, r2, r5, r6, r9, sl, fp, sp, lr}^
  18:	74694c20 	strbtvc	r4, [r9], #-3104	; 0xfffff3e0
  1c:	30322065 	eorscc	r2, r2, r5, rrx
  20:	302e3231 	eorcc	r3, lr, r1, lsr r2
  24:	37352d33 			; <UNDEFINED> instruction: 0x37352d33
  28:	2e342029 	cdpcs	0, 3, cr2, cr4, cr9, {1}
  2c:	00332e36 	eorseq	r2, r3, r6, lsr lr

Disassembly of section .stab:

00000000 <.stab>:
   0:	00000001 	andeq	r0, r0, r1
   4:	00310000 	eorseq	r0, r1, r0
   8:	00000047 	andeq	r0, r0, r7, asr #32
   c:	00000001 	andeq	r0, r0, r1
  10:	00000064 	andeq	r0, r0, r4, rrx
  14:	40300000 	eorsmi	r0, r0, r0
  18:	00000000 	andeq	r0, r0, r0
  1c:	00060044 	andeq	r0, r6, r4, asr #32
  20:	40300000 	eorsmi	r0, r0, r0
  24:	00000000 	andeq	r0, r0, r0
  28:	00070044 	andeq	r0, r7, r4, asr #32
  2c:	40300004 	eorsmi	r0, r0, r4
  30:	00000000 	andeq	r0, r0, r0
  34:	00080044 	andeq	r0, r8, r4, asr #32
  38:	40300008 	eorsmi	r0, r0, r8
  3c:	00000000 	andeq	r0, r0, r0
  40:	00090044 	andeq	r0, r9, r4, asr #32
  44:	4030000c 	eorsmi	r0, r0, ip
  48:	00000000 	andeq	r0, r0, r0
  4c:	000a0044 	andeq	r0, sl, r4, asr #32
  50:	40300010 	eorsmi	r0, r0, r0, lsl r0
  54:	00000000 	andeq	r0, r0, r0
  58:	000b0044 	andeq	r0, fp, r4, asr #32
  5c:	40300014 	eorsmi	r0, r0, r4, lsl r0
  60:	00000000 	andeq	r0, r0, r0
  64:	000c0044 	andeq	r0, ip, r4, asr #32
  68:	40300018 	eorsmi	r0, r0, r8, lsl r0
  6c:	00000000 	andeq	r0, r0, r0
  70:	000d0044 	andeq	r0, sp, r4, asr #32
  74:	4030001c 	eorsmi	r0, r0, ip, lsl r0
  78:	00000000 	andeq	r0, r0, r0
  7c:	001b0044 	andseq	r0, fp, r4, asr #32
  80:	40300040 	eorsmi	r0, r0, r0, asr #32
  84:	00000000 	andeq	r0, r0, r0
  88:	003d0044 	eorseq	r0, sp, r4, asr #32
  8c:	40300058 	eorsmi	r0, r0, r8, asr r0
  90:	00000000 	andeq	r0, r0, r0
  94:	003e0044 	eorseq	r0, lr, r4, asr #32
  98:	4030005c 	eorsmi	r0, r0, ip, asr r0
  9c:	00000000 	andeq	r0, r0, r0
  a0:	003f0044 	eorseq	r0, pc, r4, asr #32
  a4:	40300060 	eorsmi	r0, r0, r0, rrx
  a8:	00000000 	andeq	r0, r0, r0
  ac:	00400044 	subeq	r0, r0, r4, asr #32
  b0:	40300064 	eorsmi	r0, r0, r4, rrx
  b4:	00000000 	andeq	r0, r0, r0
  b8:	00460044 	subeq	r0, r6, r4, asr #32
  bc:	40300068 	eorsmi	r0, r0, r8, rrx
  c0:	00000000 	andeq	r0, r0, r0
  c4:	00490044 	subeq	r0, r9, r4, asr #32
  c8:	4030006c 	eorsmi	r0, r0, ip, rrx
  cc:	00000000 	andeq	r0, r0, r0
  d0:	00530044 	subseq	r0, r3, r4, asr #32
  d4:	40300070 	eorsmi	r0, r0, r0, ror r0
  d8:	00000000 	andeq	r0, r0, r0
  dc:	00540044 	subseq	r0, r4, r4, asr #32
  e0:	40300074 	eorsmi	r0, r0, r4, ror r0
  e4:	00000000 	andeq	r0, r0, r0
  e8:	00550044 	subseq	r0, r5, r4, asr #32
  ec:	40300078 	eorsmi	r0, r0, r8, ror r0
  f0:	00000000 	andeq	r0, r0, r0
  f4:	00560044 	subseq	r0, r6, r4, asr #32
  f8:	4030007c 	eorsmi	r0, r0, ip, ror r0
  fc:	00000000 	andeq	r0, r0, r0
 100:	005c0044 	subseq	r0, ip, r4, asr #32
 104:	40300080 	eorsmi	r0, r0, r0, lsl #1
 108:	00000000 	andeq	r0, r0, r0
 10c:	005d0044 	subseq	r0, sp, r4, asr #32
 110:	40300084 	eorsmi	r0, r0, r4, lsl #1
 114:	00000000 	andeq	r0, r0, r0
 118:	005e0044 	subseq	r0, lr, r4, asr #32
 11c:	40300088 	eorsmi	r0, r0, r8, lsl #1
 120:	00000000 	andeq	r0, r0, r0
 124:	005f0044 	subseq	r0, pc, r4, asr #32
 128:	4030008c 	eorsmi	r0, r0, ip, lsl #1
 12c:	00000000 	andeq	r0, r0, r0
 130:	00600044 	rsbeq	r0, r0, r4, asr #32
 134:	40300090 	mlasmi	r0, r0, r0, r0
 138:	00000000 	andeq	r0, r0, r0
 13c:	00610044 	rsbeq	r0, r1, r4, asr #32
 140:	40300094 	mlasmi	r0, r4, r0, r0
 144:	00000000 	andeq	r0, r0, r0
 148:	00620044 	rsbeq	r0, r2, r4, asr #32
 14c:	40300098 	mlasmi	r0, r8, r0, r0
 150:	00000000 	andeq	r0, r0, r0
 154:	00680044 	rsbeq	r0, r8, r4, asr #32
 158:	4030009c 	mlasmi	r0, ip, r0, r0
 15c:	00000000 	andeq	r0, r0, r0
 160:	00690044 	rsbeq	r0, r9, r4, asr #32
 164:	403000a0 	eorsmi	r0, r0, r0, lsr #1
 168:	00000000 	andeq	r0, r0, r0
 16c:	006a0044 	rsbeq	r0, sl, r4, asr #32
 170:	403000a4 	eorsmi	r0, r0, r4, lsr #1
 174:	00000000 	andeq	r0, r0, r0
 178:	006b0044 	rsbeq	r0, fp, r4, asr #32
 17c:	403000a8 	eorsmi	r0, r0, r8, lsr #1
 180:	00000000 	andeq	r0, r0, r0
 184:	006c0044 	rsbeq	r0, ip, r4, asr #32
 188:	403000ac 	eorsmi	r0, r0, ip, lsr #1
 18c:	00000000 	andeq	r0, r0, r0
 190:	00700044 	rsbseq	r0, r0, r4, asr #32
 194:	403000b0 	ldrhtmi	r0, [r0], -r0
 198:	00000000 	andeq	r0, r0, r0
 19c:	00710044 	rsbseq	r0, r1, r4, asr #32
 1a0:	403000b4 	ldrhtmi	r0, [r0], -r4
 1a4:	00000000 	andeq	r0, r0, r0
 1a8:	00720044 	rsbseq	r0, r2, r4, asr #32
 1ac:	403000b8 	ldrhtmi	r0, [r0], -r8
 1b0:	00000000 	andeq	r0, r0, r0
 1b4:	00760044 	rsbseq	r0, r6, r4, asr #32
 1b8:	403000bc 	ldrhtmi	r0, [r0], -ip
 1bc:	00000000 	andeq	r0, r0, r0
 1c0:	00770044 	rsbseq	r0, r7, r4, asr #32
 1c4:	403000c0 	eorsmi	r0, r0, r0, asr #1
 1c8:	00000000 	andeq	r0, r0, r0
 1cc:	00780044 	rsbseq	r0, r8, r4, asr #32
 1d0:	403000c4 	eorsmi	r0, r0, r4, asr #1
 1d4:	00000000 	andeq	r0, r0, r0
 1d8:	00790044 	rsbseq	r0, r9, r4, asr #32
 1dc:	403000c8 	eorsmi	r0, r0, r8, asr #1
 1e0:	00000000 	andeq	r0, r0, r0
 1e4:	007a0044 	rsbseq	r0, sl, r4, asr #32
 1e8:	403000cc 	eorsmi	r0, r0, ip, asr #1
 1ec:	00000023 	andeq	r0, r0, r3, lsr #32
 1f0:	00000064 	andeq	r0, r0, r4, rrx
 1f4:	403021bc 	ldrhtmi	r2, [r0], -ip
 1f8:	00000000 	andeq	r0, r0, r0
 1fc:	000e0044 	andeq	r0, lr, r4, asr #32
 200:	403021bc 	ldrhtmi	r2, [r0], -ip
 204:	00000000 	andeq	r0, r0, r0
 208:	000f0044 	andeq	r0, pc, r4, asr #32
 20c:	403021c0 	eorsmi	r2, r0, r0, asr #3
 210:	00000000 	andeq	r0, r0, r0
 214:	00100044 	andseq	r0, r0, r4, asr #32
 218:	403021c4 	eorsmi	r2, r0, r4, asr #3
 21c:	00000000 	andeq	r0, r0, r0
 220:	00110044 	andseq	r0, r1, r4, asr #32
 224:	403021c8 	eorsmi	r2, r0, r8, asr #3
 228:	00000000 	andeq	r0, r0, r0
 22c:	00120044 	andseq	r0, r2, r4, asr #32
 230:	403021cc 	eorsmi	r2, r0, ip, asr #3
 234:	00000000 	andeq	r0, r0, r0
 238:	00130044 	andseq	r0, r3, r4, asr #32
 23c:	403021d0 	ldrsbtmi	r2, [r0], -r0
 240:	00000000 	andeq	r0, r0, r0
 244:	00140044 	andseq	r0, r4, r4, asr #32
 248:	403021d4 	ldrsbtmi	r2, [r0], -r4
 24c:	00000000 	andeq	r0, r0, r0
 250:	00150044 	andseq	r0, r5, r4, asr #32
 254:	403021d8 	ldrsbtmi	r2, [r0], -r8

Disassembly of section .stabstr:

00000000 <.stabstr>:
   0:	6f682f00 	svcvs	0x00682f00
   4:	692f656d 	stmdbvs	pc!, {r0, r2, r3, r5, r6, r8, sl, sp, lr}	; <UNPREDICTABLE>
   8:	7773736e 	ldrbvc	r7, [r3, -lr, ror #6]!
   c:	662f7265 	strtvs	r7, [pc], -r5, ror #4
  10:	732f7074 	teqvc	pc, #116	; 0x74
  14:	632f6c70 	teqvs	pc, #112, 24	; 0x7000
  18:	732f7570 	teqvc	pc, #112, 10	; 0x1c000000
  1c:	74726174 	ldrbtvc	r6, [r2], #-372	; 0xfffffe8c
  20:	2f00732e 	svccs	0x0000732e
  24:	656d6f68 	strbvs	r6, [sp, #-3944]!	; 0xfffff098
  28:	736e692f 	cmnvc	lr, #770048	; 0xbc000
  2c:	72657773 	rsbvc	r7, r5, #30146560	; 0x1cc0000
  30:	7074662f 	rsbsvc	r6, r4, pc, lsr #12
  34:	6c70732f 	ldclvs	3, cr7, [r0], #-188	; 0xffffff44
  38:	7570632f 	ldrbvc	r6, [r0, #-815]!	; 0xfffffcd1
  3c:	6d6f722f 	sfmvs	f7, 2, [pc, #-188]!	; ffffff88 <__bss_end+0xbfcfc5a4>
  40:	6c61685f 	stclvs	8, cr6, [r1], #-380	; 0xfffffe84
  44:	Address 0x00000044 is out of bounds.

